
Hexadecimal

Area                               Addr   Size   Decimal Bytes (Attributes)
--------------------------------   ----   ----   ------- ----- ------------
CABS                               0000   0000 =      0. bytes (ABS,CON,CODE)

      Value  Global
   --------  --------------------------------
  0C:0000    l_CABS
  0C:0000    l_GSINIT1
  0C:0000    l_GSINIT5
  0C:0000    l_IABS
  0C:0000    l_PSEG
  0C:0000    l_REG_BANK_1
  0C:0000    l_REG_BANK_2
  0C:0000    l_REG_BANK_3
  0C:0000    l_RSEG
  0C:0000    l_XABS
  0C:0000    l_XINIT
  0C:0000    l_XISEG
  0C:0000    l_XSEG
  0C:0000    l__CODE
  0C:0000    s_BSEG
  0C:0000    s_CABS
  0C:0000    s_DSEG
  0C:0000    s_HOME
  0C:0000    s_IABS
  0C:0000    s_ISEG
  0C:0000    s_REG_BANK_0
  0C:0000    s_XABS
  0C:0001    l_BIT_BANK
  0C:0002    l_BSEG_BYTES
  0C:0002    l_OSEG
  0C:0003    l_GSFINAL
  0C:0003    l_GSINIT0
  0C:0006    l_ISEG
  0C:0008    l_REG_BANK_0
  0C:0008    s_REG_BANK_1
  0C:000A    l_BSEG
  0C:000A    l_GSINIT2
  0C:0010    l_CONST
  0C:0010    s_REG_BANK_2
  0C:0011    l_GSINIT
  0C:0018    s_REG_BANK_3
  0C:0020    s_BSEG_BYTES
  0C:0020    s__CODE
  0C:0022    s_BIT_BANK
  0C:0024    l_GSINIT3
  0C:0030    l_GSINIT4
  0C:003B    l_HOME
  0C:003B    s_GSINIT0
  0C:003E    l_startup_code
  0C:003E    s_GSINIT1
  0C:003E    s_GSINIT2
  0C:0048    s_GSINIT3
  0C:0056    s_OSEG
  0C:0058    l_DSEG
  0C:006C    s_GSINIT4
  0C:007A    l_SSEG
  0C:0086    s_RSEG
  0C:0086    s_SSEG
  0C:009C    s_GSINIT
  0C:009C    s_GSINIT5
  0C:00AD    s_GSFINAL
  0C:00B0    s_CSEG
  0C:0100    l_IRAM
  0C:112F    l_CSEG
  0C:11DF    s_CONST
  0C:11EF    s_XINIT
  0C:11EF    s_startup_code
  0C:F000    s_XISEG
  0C:F000    s_XSEG



Hexadecimal

Area                               Addr   Size   Decimal Bytes (Attributes)
--------------------------------   ----   ----   ------- ----- ------------
.  .ABS.                           0000   0000 =      0. bytes (ABS,CON)

      Value  Global
   --------  --------------------------------
     0080    G$P0_0$0$0
     0080    G$P0_ALTSEL0$0$0
     0080    G$P0_DATA$0$0
     0080    G$P0_OD$0$0
     0080    G$P0_PUDSEL$0$0
     0080    _P0_0
     0080    _P0_ALTSEL0
     0080    _P0_DATA
     0080    _P0_OD
     0080    _P0_PUDSEL
     0081    G$P0_1$0$0
     0081    G$SP$0$0
     0081    _P0_1
     0081    _SP
     0082    G$DPL$0$0
     0082    G$P0_2$0$0
     0082    _DPL
     0082    _P0_2
     0083    G$DPH$0$0
     0083    G$P0_3$0$0
     0083    _DPH
     0083    _P0_3
     0084    G$P0_4$0$0
     0084    _P0_4
     0085    G$P0_5$0$0
     0085    _P0_5
     0086    G$P0_6$0$0
     0086    G$P0_ALTSEL1$0$0
     0086    G$P0_DIR$0$0
     0086    G$P0_PUDEN$0$0
     0086    _P0_6
     0086    _P0_ALTSEL1
     0086    _P0_DIR
     0086    _P0_PUDEN
     0087    G$P0_7$0$0
     0087    G$PCON$0$0
     0087    _P0_7
     0087    _PCON
     0088    G$IT0$0$0
     0088    G$TCON$0$0
     0088    _IT0
     0088    _TCON
     0089    G$IE0$0$0
     0089    G$TMOD$0$0
     0089    _IE0
     0089    _TMOD
     008A    G$IT1$0$0
     008A    G$TL0$0$0
     008A    _IT1
     008A    _TL0
     008B    G$IE1$0$0
     008B    G$TL1$0$0
     008B    _IE1
     008B    _TL1
     008C    G$TH0$0$0
     008C    G$TR0$0$0
     008C    _TH0
     008C    _TR0
     008D    G$TF0$0$0
     008D    G$TH1$0$0
     008D    _TF0
     008D    _TH1
     008E    G$TR1$0$0
     008E    _TR1
     008F    G$SYSCON0$0$0
     008F    G$TF1$0$0
     008F    _SYSCON0
     008F    _TF1
     0090    G$P1_0$0$0
     0090    G$P1_ALTSEL0$0$0
     0090    G$P1_DATA$0$0
     0090    G$P1_OD$0$0
     0090    G$P1_PUDSEL$0$0
     0090    _P1_0
     0090    _P1_ALTSEL0
     0090    _P1_DATA
     0090    _P1_OD
     0090    _P1_PUDSEL
     0091    G$P1_1$0$0
     0091    G$P1_ALTSEL1$0$0
     0091    G$P1_DIR$0$0
     0091    G$P1_PUDEN$0$0
     0091    _P1_1
     0091    _P1_ALTSEL1
     0091    _P1_DIR
     0091    _P1_PUDEN
     0092    G$P1_2$0$0
     0092    G$P5_ALTSEL0$0$0
     0092    G$P5_DATA$0$0
     0092    G$P5_OD$0$0
     0092    G$P5_PUDSEL$0$0
     0092    _P1_2
     0092    _P5_ALTSEL0
     0092    _P5_DATA
     0092    _P5_OD
     0092    _P5_PUDSEL
     0093    G$P1_3$0$0
     0093    G$P5_ALTSEL1$0$0
     0093    G$P5_DIR$0$0
     0093    G$P5_PUDEN$0$0
     0093    _P1_3
     0093    _P5_ALTSEL1
     0093    _P5_DIR
     0093    _P5_PUDEN
     0094    G$P1_4$0$0
     0094    _P1_4
     0095    G$P1_5$0$0
     0095    _P1_5
     0096    G$P1_6$0$0
     0096    _P1_6
     0097    G$P1_7$0$0
     0097    _P1_7
     0098    G$RI$0$0
     0098    G$SCON$0$0
     0098    _RI
     0098    _SCON
     0099    G$SBUF$0$0
     0099    G$TI$0$0
     0099    _SBUF
     0099    _TI
     009A    G$CCU6_CC63RL$0$0
     009A    G$CCU6_CC63SRL$0$0
     009A    G$CCU6_MCMOUTL$0$0
     009A    G$CCU6_T12MSELL$0$0
     009A    G$CD_CORDXL$0$0
     009A    G$RB8$0$0
     009A    _CCU6_CC63RL
     009A    _CCU6_CC63SRL
     009A    _CCU6_MCMOUTL
     009A    _CCU6_T12MSELL
     009A    _CD_CORDXL
     009A    _RB8
     009B    G$CCU6_CC63RH$0$0
     009B    G$CCU6_CC63SRH$0$0
     009B    G$CCU6_MCMOUTH$0$0
     009B    G$CCU6_T12MSELH$0$0
     009B    G$CD_CORDXH$0$0
     009B    G$TB8$0$0
     009B    _CCU6_CC63RH
     009B    _CCU6_CC63SRH
     009B    _CCU6_MCMOUTH
     009B    _CCU6_T12MSELH
     009B    _CD_CORDXH
     009B    _TB8
     009C    G$CCU6_IENL$0$0
     009C    G$CCU6_ISL$0$0
     009C    G$CCU6_T12PRL$0$0
     009C    G$CCU6_TCTR4L$0$0
     009C    G$CD_CORDYL$0$0
     009C    G$REN$0$0
     009C    _CCU6_IENL
     009C    _CCU6_ISL
     009C    _CCU6_T12PRL
     009C    _CCU6_TCTR4L
     009C    _CD_CORDYL
     009C    _REN
     009D    G$CCU6_IENH$0$0
     009D    G$CCU6_ISH$0$0
     009D    G$CCU6_T12PRH$0$0
     009D    G$CCU6_TCTR4H$0$0
     009D    G$CD_CORDYH$0$0
     009D    G$SM2$0$0
     009D    _CCU6_IENH
     009D    _CCU6_ISH
     009D    _CCU6_T12PRH
     009D    _CCU6_TCTR4H
     009D    _CD_CORDYH
     009D    _SM2
     009E    G$CCU6_INPL$0$0
     009E    G$CCU6_MCMOUTSL$0$0
     009E    G$CCU6_PISEL0L$0$0
     009E    G$CCU6_T13PRL$0$0
     009E    G$CD_CORDZL$0$0
     009E    G$SM1$0$0
     009E    _CCU6_INPL
     009E    _CCU6_MCMOUTSL
     009E    _CCU6_PISEL0L
     009E    _CCU6_T13PRL
     009E    _CD_CORDZL
     009E    _SM1
     009F    G$CCU6_INPH$0$0
     009F    G$CCU6_MCMOUTSH$0$0
     009F    G$CCU6_PISEL0H$0$0
     009F    G$CCU6_T13PRH$0$0
     009F    G$CD_CORDZH$0$0
     009F    G$SM0$0$0
     009F    _CCU6_INPH
     009F    _CCU6_MCMOUTSH
     009F    _CCU6_PISEL0H
     009F    _CCU6_T13PRH
     009F    _CD_CORDZH
     009F    _SM0
     00A0    G$CD_BSY$0$0
     00A0    G$CD_STATC$0$0
     00A0    G$P2_0$0$0
     00A0    G$P2_DATA$0$0
     00A0    G$P2_PUDSEL$0$0
     00A0    _CD_BSY
     00A0    _CD_STATC
     00A0    _P2_0
     00A0    _P2_DATA
     00A0    _P2_PUDSEL
     00A1    G$CD_CON$0$0
     00A1    G$ERROR$0$0
     00A1    G$P2_1$0$0
     00A1    G$P2_DIR$0$0
     00A1    G$P2_PUDEN$0$0
     00A1    _CD_CON
     00A1    _ERROR
     00A1    _P2_1
     00A1    _P2_DIR
     00A1    _P2_PUDEN
     00A2    G$EO$0$0
     00A2    G$EOC$0$0
     00A2    G$P2_2$0$0
     00A2    _EO
     00A2    _EOC
     00A2    _P2_2
     00A3    G$CCU6_PAGE$0$0
     00A3    G$INT_EN$0$0
     00A3    G$P2_3$0$0
     00A3    _CCU6_PAGE
     00A3    _INT_EN
     00A3    _P2_3
     00A4    G$CCU6_ISRL$0$0
     00A4    G$CCU6_ISSL$0$0
     00A4    G$CCU6_PISEL2$0$0
     00A4    G$CCU6_T12DTCL$0$0
     00A4    G$DMAP$0$0
     00A4    G$P2_4$0$0
     00A4    _CCU6_ISRL
     00A4    _CCU6_ISSL
     00A4    _CCU6_PISEL2
     00A4    _CCU6_T12DTCL
     00A4    _DMAP
     00A4    _P2_4
     00A5    G$CCU6_ISRH$0$0
     00A5    G$CCU6_ISSH$0$0
     00A5    G$CCU6_T12DTCH$0$0
     00A5    G$KEEPX$0$0
     00A5    G$P2_5$0$0
     00A5    _CCU6_ISRH
     00A5    _CCU6_ISSH
     00A5    _CCU6_T12DTCH
     00A5    _KEEPX
     00A5    _P2_5
     00A6    G$CCU6_CMPMODIFL$0$0
     00A6    G$CCU6_PSLR$0$0
     00A6    G$CCU6_TCTR0L$0$0
     00A6    G$KEEPY$0$0
     00A6    G$P2_6$0$0
     00A6    _CCU6_CMPMODIFL
     00A6    _CCU6_PSLR
     00A6    _CCU6_TCTR0L
     00A6    _KEEPY
     00A6    _P2_6
     00A7    G$CCU6_CMPMODIFH$0$0
     00A7    G$CCU6_MCMCTR$0$0
     00A7    G$CCU6_TCTR0H$0$0
     00A7    G$KEEPZ$0$0
     00A7    G$P2_7$0$0
     00A7    _CCU6_CMPMODIFH
     00A7    _CCU6_MCMCTR
     00A7    _CCU6_TCTR0H
     00A7    _KEEPZ
     00A7    _P2_7
     00A8    G$EX0$0$0
     00A8    G$IEN0$0$0
     00A8    _EX0
     00A8    _IEN0
     00A9    G$ET0$0$0
     00A9    G$SSC_PISEL$0$0
     00A9    _ET0
     00A9    _SSC_PISEL
     00AA    G$EX1$0$0
     00AA    G$SSC_CONL_O$0$0
     00AA    G$SSC_CONL_P$0$0
     00AA    _EX1
     00AA    _SSC_CONL_O
     00AA    _SSC_CONL_P
     00AB    G$ET1$0$0
     00AB    G$SSC_CONH_O$0$0
     00AB    G$SSC_CONH_P$0$0
     00AB    _ET1
     00AB    _SSC_CONH_O
     00AB    _SSC_CONH_P
     00AC    G$ES$0$0
     00AC    G$SSC_TBL$0$0
     00AC    _ES
     00AC    _SSC_TBL
     00AD    G$ET2$0$0
     00AD    G$SSC_RBL$0$0
     00AD    _ET2
     00AD    _SSC_RBL
     00AE    G$SSC_BRL$0$0
     00AE    _SSC_BRL
     00AF    G$EA$0$0
     00AF    G$SSC_BRH$0$0
     00AF    _EA
     00AF    _SSC_BRH
     00B0    G$IRDY$0$0
     00B0    G$MDU_MDUSTAT$0$0
     00B0    G$P3_0$0$0
     00B0    G$P3_ALTSEL0$0$0
     00B0    G$P3_DATA$0$0
     00B0    G$P3_OD$0$0
     00B0    G$P3_PUDSEL$0$0
     00B0    _IRDY
     00B0    _MDU_MDUSTAT
     00B0    _P3_0
     00B0    _P3_ALTSEL0
     00B0    _P3_DATA
     00B0    _P3_OD
     00B0    _P3_PUDSEL
     00B1    G$IERR$0$0
     00B1    G$MDU_MDUCON$0$0
     00B1    G$P3_1$0$0
     00B1    G$P3_ALTSEL1$0$0
     00B1    G$P3_DIR$0$0
     00B1    G$P3_PUDEN$0$0
     00B1    _IERR
     00B1    _MDU_MDUCON
     00B1    _P3_1
     00B1    _P3_ALTSEL1
     00B1    _P3_DIR
     00B1    _P3_PUDEN
     00B2    G$MDU_BSY$0$0
     00B2    G$MDU_MD0$0$0
     00B2    G$MDU_MR0$0$0
     00B2    G$P3_2$0$0
     00B2    G$PORT_PAGE$0$0
     00B2    _MDU_BSY
     00B2    _MDU_MD0
     00B2    _MDU_MR0
     00B2    _P3_2
     00B2    _PORT_PAGE
     00B3    G$ID$0$0
     00B3    G$MDU_MD1$0$0
     00B3    G$MDU_MR1$0$0
     00B3    G$MODPISEL$0$0
     00B3    G$P3_3$0$0
     00B3    G$XADDRH$0$0
     00B3    _ID
     00B3    _MDU_MD1
     00B3    _MDU_MR1
     00B3    _MODPISEL
     00B3    _P3_3
     00B3    _XADDRH
     00B3    __XPAGE
     00B4    G$IRCON0$0$0
     00B4    G$IRCON3$0$0
     00B4    G$MDU_MD2$0$0
     00B4    G$MDU_MR2$0$0
     00B4    G$P3_4$0$0
     00B4    G$PMCON0$0$0
     00B4    _IRCON0
     00B4    _IRCON3
     00B4    _MDU_MD2
     00B4    _MDU_MR2
     00B4    _P3_4
     00B4    _PMCON0
     00B5    G$IRCON1$0$0
     00B5    G$IRCON4$0$0
     00B5    G$MDU_MD3$0$0
     00B5    G$MDU_MR3$0$0
     00B5    G$P3_5$0$0
     00B5    G$PMCON1$0$0
     00B5    _IRCON1
     00B5    _IRCON4
     00B5    _MDU_MD3
     00B5    _MDU_MR3
     00B5    _P3_5
     00B5    _PMCON1
     00B6    G$IRCON2$0$0
     00B6    G$MDU_MD4$0$0
     00B6    G$MDU_MR4$0$0
     00B6    G$OSC_CON$0$0
     00B6    G$P3_6$0$0
     00B6    _IRCON2
     00B6    _MDU_MD4
     00B6    _MDU_MR4
     00B6    _OSC_CON
     00B6    _P3_6
     00B7    G$EXICON0$0$0
     00B7    G$MDU_MD5$0$0
     00B7    G$MDU_MR5$0$0
     00B7    G$MODPISEL1$0$0
     00B7    G$P3_7$0$0
     00B7    G$PLL_CON$0$0
     00B7    _EXICON0
     00B7    _MDU_MD5
     00B7    _MDU_MR5
     00B7    _MODPISEL1
     00B7    _P3_7
     00B7    _PLL_CON
     00B8    G$IP$0$0
     00B8    G$PX0$0$0
     00B8    _IP
     00B8    _PX0
     00B9    G$IPH$0$0
     00B9    G$PT0$0$0
     00B9    _IPH
     00B9    _PT0
     00BA    G$CMCON$0$0
     00BA    G$EXICON1$0$0
     00BA    G$MODPISEL2$0$0
     00BA    G$PX1$0$0
     00BA    _CMCON
     00BA    _EXICON1
     00BA    _MODPISEL2
     00BA    _PX1
     00BB    G$NMICON$0$0
     00BB    G$PASSWD$0$0
     00BB    G$PMCON2$0$0
     00BB    G$PT1$0$0
     00BB    G$WDTCON$0$0
     00BB    _NMICON
     00BB    _PASSWD
     00BB    _PMCON2
     00BB    _PT1
     00BB    _WDTCON
     00BC    G$FEAL$0$0
     00BC    G$NMISR$0$0
     00BC    G$PS$0$0
     00BC    G$WDTREL$0$0
     00BC    _FEAL
     00BC    _NMISR
     00BC    _PS
     00BC    _WDTREL
     00BD    G$BCON$0$0
     00BD    G$FEAH$0$0
     00BD    G$MODSUSP$0$0
     00BD    G$PT2$0$0
     00BD    G$WDTWINB$0$0
     00BD    _BCON
     00BD    _FEAH
     00BD    _MODSUSP
     00BD    _PT2
     00BD    _WDTWINB
     00BE    G$BG$0$0
     00BE    G$COCON$0$0
     00BE    G$WDTL$0$0
     00BE    _BG
     00BE    _COCON
     00BE    _WDTL
     00BF    G$SCU_PAGE$0$0
     00BF    G$WDTH$0$0
     00BF    _SCU_PAGE
     00BF    _WDTH
     00C0    G$CP_RL2$0$0
     00C0    G$T21_T2CON$0$0
     00C0    G$T2_T2CON$0$0
     00C0    _CP_RL2
     00C0    _T21_T2CON
     00C0    _T2_T2CON
     00C1    G$C_T2$0$0
     00C1    G$T21_T2MOD$0$0
     00C1    G$T2_T2MOD$0$0
     00C1    _C_T2
     00C1    _T21_T2MOD
     00C1    _T2_T2MOD
     00C2    G$T21_RC2L$0$0
     00C2    G$T2_RC2L$0$0
     00C2    G$TR2$0$0
     00C2    _T21_RC2L
     00C2    _T2_RC2L
     00C2    _TR2
     00C3    G$EXEN2$0$0
     00C3    G$T21_RC2H$0$0
     00C3    G$T2_RC2H$0$0
     00C3    _EXEN2
     00C3    _T21_RC2H
     00C3    _T2_RC2H
     00C4    G$T21_T2L$0$0
     00C4    G$T2_T2L$0$0
     00C4    _T21_T2L
     00C4    _T2_T2L
     00C5    G$T21_T2H$0$0
     00C5    G$T2_T2H$0$0
     00C5    _T21_T2H
     00C5    _T2_T2H
     00C6    G$EXF2$0$0
     00C6    _EXF2
     00C7    G$TF2$0$0
     00C7    _TF2
     00C8    G$P4_0$0$0
     00C8    G$P4_ALTSEL0$0$0
     00C8    G$P4_DATA$0$0
     00C8    G$P4_OD$0$0
     00C8    G$P4_PUDSEL$0$0
     00C8    G$RI_1$0$0
     00C8    G$UART1_SCON$0$0
     00C8    _P4_0
     00C8    _P4_ALTSEL0
     00C8    _P4_DATA
     00C8    _P4_OD
     00C8    _P4_PUDSEL
     00C8    _RI_1
     00C8    _UART1_SCON
     00C9    G$P4_1$0$0
     00C9    G$P4_ALTSEL1$0$0
     00C9    G$P4_DIR$0$0
     00C9    G$P4_PUDEN$0$0
     00C9    G$TI_1$0$0
     00C9    G$UART1_SBUF$0$0
     00C9    _P4_1
     00C9    _P4_ALTSEL1
     00C9    _P4_DIR
     00C9    _P4_PUDEN
     00C9    _TI_1
     00C9    _UART1_SBUF
     00CA    G$ADC_CHCTR0$0$0
     00CA    G$ADC_CHINFR$0$0
     00CA    G$ADC_CRCR1$0$0
     00CA    G$ADC_GLOBCTR$0$0
     00CA    G$ADC_RCR0$0$0
     00CA    G$ADC_RESR0L$0$0
     00CA    G$ADC_RESRA0L$0$0
     00CA    G$P4_2$0$0
     00CA    G$RB8_1$0$0
     00CA    G$UART1_BCON$0$0
     00CA    _ADC_CHCTR0
     00CA    _ADC_CHINFR
     00CA    _ADC_CRCR1
     00CA    _ADC_GLOBCTR
     00CA    _ADC_RCR0
     00CA    _ADC_RESR0L
     00CA    _ADC_RESRA0L
     00CA    _P4_2
     00CA    _RB8_1
     00CA    _UART1_BCON
     00CB    G$ADC_CHCTR1$0$0
     00CB    G$ADC_CHINCR$0$0
     00CB    G$ADC_CRPR1$0$0
     00CB    G$ADC_GLOBSTR$0$0
     00CB    G$ADC_RCR1$0$0
     00CB    G$ADC_RESR0H$0$0
     00CB    G$ADC_RESRA0H$0$0
     00CB    G$P4_3$0$0
     00CB    G$TB8_1$0$0
     00CB    G$UART1_BG$0$0
     00CB    _ADC_CHCTR1
     00CB    _ADC_CHINCR
     00CB    _ADC_CRPR1
     00CB    _ADC_GLOBSTR
     00CB    _ADC_RCR1
     00CB    _ADC_RESR0H
     00CB    _ADC_RESRA0H
     00CB    _P4_3
     00CB    _TB8_1
     00CB    _UART1_BG
     00CC    G$ADC_CHCTR2$0$0
     00CC    G$ADC_CHINSR$0$0
     00CC    G$ADC_CRMR1$0$0
     00CC    G$ADC_PRAR$0$0
     00CC    G$ADC_RCR2$0$0
     00CC    G$ADC_RESR1L$0$0
     00CC    G$ADC_RESRA1L$0$0
     00CC    G$P4_4$0$0
     00CC    G$REN_1$0$0
     00CC    G$UART1_FDCON$0$0
     00CC    _ADC_CHCTR2
     00CC    _ADC_CHINSR
     00CC    _ADC_CRMR1
     00CC    _ADC_PRAR
     00CC    _ADC_RCR2
     00CC    _ADC_RESR1L
     00CC    _ADC_RESRA1L
     00CC    _P4_4
     00CC    _REN_1
     00CC    _UART1_FDCON
     00CD    G$ADC_CHCTR3$0$0
     00CD    G$ADC_CHINPR$0$0
     00CD    G$ADC_LCBR$0$0
     00CD    G$ADC_QMR0$0$0
     00CD    G$ADC_RCR3$0$0
     00CD    G$ADC_RESR1H$0$0
     00CD    G$ADC_RESRA1H$0$0
     00CD    G$P4_5$0$0
     00CD    G$SM2_1$0$0
     00CD    G$UART1_FDSTEP$0$0
     00CD    _ADC_CHCTR3
     00CD    _ADC_CHINPR
     00CD    _ADC_LCBR
     00CD    _ADC_QMR0
     00CD    _ADC_RCR3
     00CD    _ADC_RESR1H
     00CD    _ADC_RESRA1H
     00CD    _P4_5
     00CD    _SM2_1
     00CD    _UART1_FDSTEP
     00CE    G$ADC_CHCTR4$0$0
     00CE    G$ADC_EVINFR$0$0
     00CE    G$ADC_INPCR0$0$0
     00CE    G$ADC_QSR0$0$0
     00CE    G$ADC_RESR2L$0$0
     00CE    G$ADC_RESRA2L$0$0
     00CE    G$ADC_VFCR$0$0
     00CE    G$P4_6$0$0
     00CE    G$SM1_1$0$0
     00CE    G$UART1_FDRES$0$0
     00CE    _ADC_CHCTR4
     00CE    _ADC_EVINFR
     00CE    _ADC_INPCR0
     00CE    _ADC_QSR0
     00CE    _ADC_RESR2L
     00CE    _ADC_RESRA2L
     00CE    _ADC_VFCR
     00CE    _P4_6
     00CE    _SM1_1
     00CE    _UART1_FDRES
     00CF    G$ADC_CHCTR5$0$0
     00CF    G$ADC_ETRCR$0$0
     00CF    G$ADC_EVINCR$0$0
     00CF    G$ADC_Q0R0$0$0
     00CF    G$ADC_RESR2H$0$0
     00CF    G$ADC_RESRA2H$0$0
     00CF    G$P4_7$0$0
     00CF    G$SM0_1$0$0
     00CF    _ADC_CHCTR5
     00CF    _ADC_ETRCR
     00CF    _ADC_EVINCR
     00CF    _ADC_Q0R0
     00CF    _ADC_RESR2H
     00CF    _ADC_RESRA2H
     00CF    _P4_7
     00CF    _SM0_1
     00D0    G$P$0$0
     00D0    G$PSW$0$0
     00D0    _P
     00D0    _PSW
     00D1    G$ADC_PAGE$0$0
     00D1    G$F1$0$0
     00D1    _ADC_PAGE
     00D1    _F1
     00D2    G$ADC_CHCTR6$0$0
     00D2    G$ADC_EVINSR$0$0
     00D2    G$ADC_QBUR0$0$0
     00D2    G$ADC_QINR0$0$0
     00D2    G$ADC_RESR3L$0$0
     00D2    G$ADC_RESRA3L$0$0
     00D2    G$OV$0$0
     00D2    _ADC_CHCTR6
     00D2    _ADC_EVINSR
     00D2    _ADC_QBUR0
     00D2    _ADC_QINR0
     00D2    _ADC_RESR3L
     00D2    _ADC_RESRA3L
     00D2    _OV
     00D3    G$ADC_CHCTR7$0$0
     00D3    G$ADC_EVINPR$0$0
     00D3    G$ADC_RESR3H$0$0
     00D3    G$ADC_RESRA3H$0$0
     00D3    G$RS0$0$0
     00D3    _ADC_CHCTR7
     00D3    _ADC_EVINPR
     00D3    _ADC_RESR3H
     00D3    _ADC_RESRA3H
     00D3    _RS0
     00D4    G$RS1$0$0
     00D4    _RS1
     00D5    G$F0$0$0
     00D5    _F0
     00D6    G$AC$0$0
     00D6    _AC
     00D7    G$CY$0$0
     00D7    _CY
     00D8    G$CAN_ADCON$0$0
     00D8    _CAN_ADCON
     00D9    G$CAN_ADL$0$0
     00D9    _CAN_ADL
     00DA    G$CAN_ADH$0$0
     00DA    _CAN_ADH
     00DB    G$CAN_DATA0$0$0
     00DB    _CAN_DATA0
     00DC    G$CAN_DATA1$0$0
     00DC    _CAN_DATA1
     00DD    G$CAN_DATA2$0$0
     00DD    _CAN_DATA2
     00DE    G$CAN_DATA3$0$0
     00DE    _CAN_DATA3
     00E0    G$ACC$0$0
     00E0    _ACC
     00E8    G$EADC$0$0
     00E8    G$IEN1$0$0
     00E8    _EADC
     00E8    _IEN1
     00E9    G$ESSC$0$0
     00E9    G$FDCON$0$0
     00E9    G$MISC_CON$0$0
     00E9    G$MMCR2$0$0
     00E9    _ESSC
     00E9    _FDCON
     00E9    _MISC_CON
     00E9    _MMCR2
     00EA    G$EX2$0$0
     00EA    G$FDSTEP$0$0
     00EA    _EX2
     00EA    _FDSTEP
     00EB    G$EXM$0$0
     00EB    G$FDRES$0$0
     00EB    G$MMWR1$0$0
     00EB    _EXM
     00EB    _FDRES
     00EB    _MMWR1
     00EC    G$ECCIP0$0$0
     00EC    G$MMWR2$0$0
     00EC    _ECCIP0
     00EC    _MMWR2
     00ED    G$ECCIP1$0$0
     00ED    _ECCIP1
     00EE    G$ECCIP2$0$0
     00EE    _ECCIP2
     00EF    G$ECCIP3$0$0
     00EF    _ECCIP3
     00F0    G$B$0$0
     00F0    _B
     00F1    G$MMCR$0$0
     00F1    _MMCR
     00F2    G$MMSR$0$0
     00F2    _MMSR
     00F3    G$MMBPCR$0$0
     00F3    _MMBPCR
     00F4    G$MMICR$0$0
     00F4    _MMICR
     00F5    G$MMDR$0$0
     00F5    _B_5
     00F5    _MMDR
     00F6    G$HWBPSR$0$0
     00F6    _B_6
     00F6    _HWBPSR
     00F7    G$HWBPDR$0$0
     00F7    _B_7
     00F7    _HWBPDR
     00F8    G$IP1$0$0
     00F8    G$PADC$0$0
     00F8    _IP1
     00F8    _PADC
     00F9    G$IPH1$0$0
     00F9    G$PSSC$0$0
     00F9    _IPH1
     00F9    _PSSC
     00FA    G$CCU6_CC60RL$0$0
     00FA    G$CCU6_CC60SRL$0$0
     00FA    G$CCU6_T12L$0$0
     00FA    G$CCU6_TCTR2L$0$0
     00FA    G$PX2$0$0
     00FA    _CCU6_CC60RL
     00FA    _CCU6_CC60SRL
     00FA    _CCU6_T12L
     00FA    _CCU6_TCTR2L
     00FA    _PX2
     00FB    G$CCU6_CC60RH$0$0
     00FB    G$CCU6_CC60SRH$0$0
     00FB    G$CCU6_T12H$0$0
     00FB    G$CCU6_TCTR2H$0$0
     00FB    G$PXM$0$0
     00FB    _CCU6_CC60RH
     00FB    _CCU6_CC60SRH
     00FB    _CCU6_T12H
     00FB    _CCU6_TCTR2H
     00FB    _PXM
     00FC    G$CCU6_CC61RL$0$0
     00FC    G$CCU6_CC61SRL$0$0
     00FC    G$CCU6_MODCTRL$0$0
     00FC    G$CCU6_T13L$0$0
     00FC    G$PCCIP0$0$0
     00FC    _CCU6_CC61RL
     00FC    _CCU6_CC61SRL
     00FC    _CCU6_MODCTRL
     00FC    _CCU6_T13L
     00FC    _PCCIP0
     00FD    G$CCU6_CC61RH$0$0
     00FD    G$CCU6_CC61SRH$0$0
     00FD    G$CCU6_MODCTRH$0$0
     00FD    G$CCU6_T13H$0$0
     00FD    G$PCCIP1$0$0
     00FD    _CCU6_CC61RH
     00FD    _CCU6_CC61SRH
     00FD    _CCU6_MODCTRH
     00FD    _CCU6_T13H
     00FD    _PCCIP1
     00FE    G$CCU6_CC62RL$0$0
     00FE    G$CCU6_CC62SRL$0$0
     00FE    G$CCU6_CMPSTATL$0$0
     00FE    G$CCU6_TRPCTRL$0$0
     00FE    G$PCCIP2$0$0
     00FE    _CCU6_CC62RL
     00FE    _CCU6_CC62SRL
     00FE    _CCU6_CMPSTATL
     00FE    _CCU6_TRPCTRL
     00FE    _PCCIP2
     00FF    G$CCU6_CC62RH$0$0
     00FF    G$CCU6_CC62SRH$0$0
     00FF    G$CCU6_CMPSTATH$0$0
     00FF    G$CCU6_TRPCTRH$0$0
     00FF    G$PCCIP3$0$0
     00FF    _CCU6_CC62RH
     00FF    _CCU6_CC62SRH
     00FF    _CCU6_CMPSTATH
     00FF    _CCU6_TRPCTRH
     00FF    _PCCIP3
     9B9A    G$CCU6_CC63RLH$0$0
     9B9A    G$CCU6_CC63SRLH$0$0
     9B9A    _CCU6_CC63RLH
     9B9A    _CCU6_CC63SRLH
     9D9C    G$CCU6_T12PRLH$0$0
     9D9C    _CCU6_T12PRLH
     9F9E    G$CCU6_T13PRLH$0$0
     9F9E    _CCU6_T13PRLH
     C3C2    G$T2_RC2LH$0$0
     C3C2    _T2_RC2LH
     C5C4    G$T2_T2LH$0$0
     C5C4    _T2_T2LH
     CBCA    G$ADC_RESR0LH$0$0
     CBCA    G$ADC_RESRA0LH$0$0
     CBCA    _ADC_RESR0LH
     CBCA    _ADC_RESRA0LH
     CDCC    G$ADC_RESR1LH$0$0
     CDCC    G$ADC_RESRA1LH$0$0
     CDCC    _ADC_RESR1LH
     CDCC    _ADC_RESRA1LH
     CFCE    G$ADC_RESR2LH$0$0
     CFCE    G$ADC_RESRA2LH$0$0
     CFCE    _ADC_RESR2LH
     CFCE    _ADC_RESRA2LH
     D3D2    G$ADC_RESR3LH$0$0
     D3D2    G$ADC_RESRA3LH$0$0
     D3D2    _ADC_RESR3LH
     D3D2    _ADC_RESRA3LH
     F000    s_PSEG
     FBFA    G$CCU6_CC60RLH$0$0
     FBFA    G$CCU6_CC60SRLH$0$0
     FBFA    G$CCU6_T12LH$0$0
     FBFA    _CCU6_CC60RLH
     FBFA    _CCU6_CC60SRLH
     FBFA    _CCU6_T12LH
     FDFC    G$CCU6_CC61RLH$0$0
     FDFC    G$CCU6_CC61SRLH$0$0
     FDFC    G$CCU6_T13LH$0$0
     FDFC    _CCU6_CC61RLH
     FDFC    _CCU6_CC61SRLH
     FDFC    _CCU6_T13LH
     FFFE    G$CCU6_CC62RLH$0$0
     FFFE    G$CCU6_CC62SRLH$0$0
     FFFE    _CCU6_CC62RLH
     FFFE    _CCU6_CC62SRLH









Hexadecimal

Area                               Addr   Size   Decimal Bytes (Attributes)
--------------------------------   ----   ----   ------- ----- ------------
DSEG                               0000   0058 =     88. bytes (REL,CON)

      Value  Global
   --------  --------------------------------
     0008    LADC_vStartSeqReqChNum$ubEnIntr$1$1
     0008    _ADC_vStartSeqReqChNum_PARM_2
     0009    LADC_vStartSeqReqChNum$ubRFill$1$1
     0009    _ADC_vStartSeqReqChNum_PARM_3
     000A    LADC_vStartSeqReqChNum$ubChannelNum$1$1
     000A    _ADC_vStartSeqReqChNum_PARM_4
     000B    FSHARED_INT$wertadc$0$0
     000F    FUART$txcount$0$0
     0010    FUART$a$0$0
     0012    FUART$buf$0$0
     0018    _vsprintf_PARM_2
     001B    _vsprintf_PARM_3
     001F    _bp
     0023    LCAN_vWriteAMData$ulData$1$1
     0027    LCAN_ulGetCANData$ulData$1$1
     002B    LCAN_vGetMsgObj$pstObj$1$1
     002B    _CAN_vGetMsgObj_PARM_2
     002E    LCAN_vGetMsgObj$ubTemp$1$1
     002F    LCAN_vGetMsgObj$sloc0$1$0
     0032    LCAN_vGetMsgObj$sloc1$1$0
     0033    LCAN_vGetMsgObj$sloc2$1$0
     0036    LCAN_vLoadData$ulpubData$1$1
     0036    _CAN_vLoadData_PARM_2
     0039    LCAN_vLoadData$sloc0$1$0
     0049    __print_format_PARM_2
     004C    __print_format_PARM_3
     004F    __print_format_PARM_4

Hexadecimal

Area                               Addr   Size   Decimal Bytes (Attributes)
--------------------------------   ----   ----   ------- ----- ------------
OSEG                               0056   0002 =      2. bytes (REL,OVR)

      Value  Global
   --------  --------------------------------
     0056    __gptrput_PARM_2
     0056    _calculate_digit_radix_1_1
     0057    _calculate_digit_i_1_1


Hexadecimal

Area                               Addr   Size   Decimal Bytes (Attributes)
--------------------------------   ----   ----   ------- ----- ------------
SSEG                               0086   007A =    122. bytes (REL,OVR)

      Value  Global
   --------  --------------------------------
     0086    __start__stack





Hexadecimal

Area                               Addr   Size   Decimal Bytes (Attributes)
--------------------------------   ----   ----   ------- ----- ------------
HOME                               0000   003B =     59. bytes (REL,CON,CODE)

      Value  Global
   --------  --------------------------------
  0C:0000    A$MAIN$1349
  0C:0003    A$MAIN$1350
  0C:000B    A$MAIN$1352
  0C:0013    A$MAIN$1354
  0C:001B    A$MAIN$1356
  0C:0023    A$MAIN$1358
  0C:002B    A$MAIN$1360
  0C:0033    A$MAIN$1362
  0C:0036    A$MAIN$1384
  0C:0036    __sdcc_program_startup
  0C:0039    A$MAIN$1386

Hexadecimal

Area                               Addr   Size   Decimal Bytes (Attributes)
--------------------------------   ----   ----   ------- ----- ------------
GSINIT0                            003B   0003 =      3. bytes (REL,CON,CODE)

      Value  Global
   --------  --------------------------------
  0C:003B    __sdcc_gsinit_startup



Hexadecimal

Area                               Addr   Size   Decimal Bytes (Attributes)
--------------------------------   ----   ----   ------- ----- ------------
GSINIT3                            0048   0024 =     36. bytes (REL,CON,CODE)

      Value  Global
   --------  --------------------------------
  0C:0048    __xc800_genXINIT

Hexadecimal

Area                               Addr   Size   Decimal Bytes (Attributes)
--------------------------------   ----   ----   ------- ----- ------------
GSINIT4                            006C   0030 =     48. bytes (REL,CON,CODE)

      Value  Global
   --------  --------------------------------
  0C:006C    A$MemInitxc88x$70
  0C:006C    __xc800_genRAMCLEAR
  0C:006D    A$MemInitxc88x$71
  0C:006F    A$MemInitxc88x$73
  0C:0070    A$MemInitxc88x$74
  0C:0072    A$MemInitxc88x$85
  0C:0072    __xc800_genXRAMCLEAR
  0C:0075    A$MemInitxc88x$86
  0C:0078    A$MemInitxc88x$87
  0C:007B    A$MemInitxc88x$89
  0C:007D    A$MemInitxc88x$90
  0C:007E    A$MemInitxc88x$91
  0C:0080    A$MemInitxc88x$92
  0C:0082    A$MemInitxc88x$93
  0C:0084    A$MemInitxc88x$94
  0C:0085    A$MemInitxc88x$96
  0C:0086    A$MemInitxc88x$97
  0C:0087    A$MemInitxc88x$98
  0C:0089    A$MemInitxc88x$104
  0C:008B    A$MemInitxc88x$105
  0C:008C    A$MemInitxc88x$106
  0C:008E    A$MemInitxc88x$107
  0C:0090    A$MemInitxc88x$108
  0C:0092    A$MemInitxc88x$109
  0C:0095    A$MemInitxc88x$110
  0C:0096    A$MemInitxc88x$112
  0C:0097    A$MemInitxc88x$113
  0C:0098    A$MemInitxc88x$114
  0C:009A    A$MemInitxc88x$115


Hexadecimal

Area                               Addr   Size   Decimal Bytes (Attributes)
--------------------------------   ----   ----   ------- ----- ------------
GSINIT                             009C   0011 =     17. bytes (REL,CON,CODE)

      Value  Global
   --------  --------------------------------
  0C:009C    A$SHARED_INT$1365
  0C:009C    C$SHARED_INT.C$322$1$1
  0C:009D    A$SHARED_INT$1366
  0C:009F    A$SHARED_INT$1367
  0C:00A1    A$SHARED_INT$1368
  0C:00A3    A$SHARED_INT$1369
  0C:00A5    A$UART$1371
  0C:00A5    C$UART.C$201$1$1
  0C:00A8    A$UART$1375
  0C:00A8    C$UART.C$202$1$1
  0C:00A9    A$UART$1376
  0C:00AB    A$UART$1377

Hexadecimal

Area                               Addr   Size   Decimal Bytes (Attributes)
--------------------------------   ----   ----   ------- ----- ------------
GSFINAL                            00AD   0003 =      3. bytes (REL,CON,CODE)

      Value  Global
   --------  --------------------------------
  0C:00AD    A$MAIN$1377

Hexadecimal

Area                               Addr   Size   Decimal Bytes (Attributes)
--------------------------------   ----   ----   ------- ----- ------------
CSEG                               00B0   112F =   4399. bytes (REL,CON,CODE)

      Value  Global
   --------  --------------------------------
  0C:00B0    A$MAIN$1412
  0C:00B0    C$MAIN.C$122$0$0
  0C:00B0    C$MAIN.C$138$1$1
  0C:00B0    G$MAIN_vInit$0$0
  0C:00B0    _MAIN_vInit
  0C:00B3    A$MAIN$1415
  0C:00B3    C$MAIN.C$140$1$1
  0C:00B6    A$MAIN$1418
  0C:00B6    C$MAIN.C$142$1$1
  0C:00B9    A$MAIN$1421
  0C:00B9    C$MAIN.C$151$1$1
  0C:00BC    A$MAIN$1424
  0C:00BC    C$MAIN.C$154$1$1
  0C:00BF    A$MAIN$1427
  0C:00BF    C$MAIN.C$157$1$1
  0C:00C2    A$MAIN$1430
  0C:00C2    C$MAIN.C$160$1$1
  0C:00C5    A$MAIN$1433
  0C:00C5    C$MAIN.C$163$1$1
  0C:00C8    A$MAIN$1436
  0C:00C8    C$MAIN.C$166$1$1
  0C:00CB    A$MAIN$1439
  0C:00CB    C$MAIN.C$170$1$1
  0C:00CE    A$MAIN$1442
  0C:00CE    C$MAIN.C$171$1$1
  0C:00D1    A$MAIN$1445
  0C:00D1    C$MAIN.C$172$1$1
  0C:00D4    A$MAIN$1448
  0C:00D4    C$MAIN.C$173$1$1
  0C:00D7    A$MAIN$1451
  0C:00D7    C$MAIN.C$185$1$1
  0C:00D9    A$MAIN$1454
  0C:00D9    C$MAIN.C$187$1$1
  0C:00D9    XG$MAIN_vInit$0$0
  0C:00DA    A$MAIN$1468
  0C:00DA    C$MAIN.C$211$1$1
  0C:00DA    C$MAIN.C$217$1$1
  0C:00DA    G$main$0$0
  0C:00DA    _main
  0C:00DD    A$MAIN$1474
  0C:00DD    C$MAIN.C$223$1$1
  0C:00DD    C$MAIN.C$232$1$1
  0C:00DD    XG$main$0$0
  0C:00DF    A$ADC$1387
  0C:00DF    C$ADC.C$129$0$0
  0C:00DF    C$ADC.C$147$1$1
  0C:00DF    G$ADC_vInit$0$0
  0C:00DF    _ADC_vInit
  0C:00E2    A$ADC$1390
  0C:00E2    C$ADC.C$149$1$1
  0C:00E5    A$ADC$1393
  0C:00E5    C$ADC.C$162$1$1
  0C:00E8    A$ADC$1396
  0C:00E8    C$ADC.C$164$1$1
  0C:00EB    A$ADC$1399
  0C:00EB    C$ADC.C$173$1$1
  0C:00EE    A$ADC$1402
  0C:00EE    C$ADC.C$175$1$1
  0C:00F1    A$ADC$1405
  0C:00F1    C$ADC.C$181$1$1
  0C:00F4    A$ADC$1408
  0C:00F4    C$ADC.C$183$1$1
  0C:00F7    A$ADC$1411
  0C:00F7    C$ADC.C$194$1$1
  0C:00FA    A$ADC$1414
  0C:00FA    C$ADC.C$202$1$1
  0C:00FD    A$ADC$1417
  0C:00FD    C$ADC.C$210$1$1
  0C:0100    A$ADC$1420
  0C:0100    C$ADC.C$218$1$1
  0C:0103    A$ADC$1423
  0C:0103    C$ADC.C$220$1$1
  0C:0106    A$ADC$1426
  0C:0106    C$ADC.C$234$1$1
  0C:0109    A$ADC$1429
  0C:0109    C$ADC.C$247$1$1
  0C:010C    A$ADC$1432
  0C:010C    C$ADC.C$249$1$1
  0C:010F    A$ADC$1435
  0C:010F    C$ADC.C$255$1$1
  0C:0112    A$ADC$1438
  0C:0112    C$ADC.C$265$1$1
  0C:0115    A$ADC$1441
  0C:0115    C$ADC.C$267$1$1
  0C:0118    A$ADC$1444
  0C:0118    C$ADC.C$275$1$1
  0C:011B    A$ADC$1447
  0C:011B    C$ADC.C$285$1$1
  0C:011E    A$ADC$1450
  0C:011E    C$ADC.C$287$1$1
  0C:0121    A$ADC$1453
  0C:0121    C$ADC.C$289$1$1
  0C:0124    A$ADC$1456
  0C:0124    C$ADC.C$297$1$1
  0C:0124    XG$ADC_vInit$0$0
  0C:0125    A$ADC$1473
  0C:0125    C$ADC.C$327$1$1
  0C:0125    G$ADC_vStartSeqReqChNum$0$0
  0C:0125    _ADC_vStartSeqReqChNum
  0C:0127    A$ADC$1476
  0C:0127    C$ADC.C$330$1$1
  0C:0129    A$ADC$1479
  0C:0129    C$ADC.C$331$1$1
  0C:012C    A$ADC$1480
  0C:012E    A$ADC$1484
  0C:012E    C$ADC.C$332$1$1
  0C:0130    A$ADC$1485
  0C:0133    A$ADC$1486
  0C:0135    A$ADC$1487
  0C:0136    A$ADC$1488
  0C:0137    A$ADC$1492
  0C:0137    C$ADC.C$333$1$1
  0C:0139    A$ADC$1493
  0C:013C    A$ADC$1494
  0C:013E    A$ADC$1495
  0C:013F    A$ADC$1496
  0C:0140    A$ADC$1500
  0C:0140    C$ADC.C$334$1$1
  0C:0142    A$ADC$1501
  0C:0144    A$ADC$1502
  0C:0145    A$ADC$1503
  0C:0146    A$ADC$1506
  0C:0146    C$ADC.C$336$1$1
  0C:0149    A$ADC$1509
  0C:0149    C$ADC.C$338$1$1
  0C:014B    A$ADC$1512
  0C:014B    C$ADC.C$340$1$1
  0C:014E    A$ADC$1515
  0C:014E    C$ADC.C$342$1$1
  0C:014E    XG$ADC_vStartSeqReqChNum$0$0
  0C:014F    A$ADC$1530
  0C:014F    C$ADC.C$363$1$1
  0C:014F    C$ADC.C$365$1$1
  0C:014F    G$ADC_uwGetResultData0$0$0
  0C:014F    _ADC_uwGetResultData0
  0C:0151    A$ADC$1531
  0C:0153    A$ADC$1534
  0C:0153    C$ADC.C$367$1$1
  0C:0156    A$ADC$1537
  0C:0156    C$ADC.C$369$1$1
  0C:0158    A$ADC$1538
  0C:015B    A$ADC$1541
  0C:015B    C$ADC.C$372$2$2
  0C:015D    A$ADC$1542
  0C:015F    A$ADC$1546
  0C:015F    C$ADC.C$375$1$1
  0C:0162    A$ADC$1549
  0C:0162    C$ADC.C$377$1$1
  0C:0164    A$ADC$1550
  0C:0166    A$ADC$1553
  0C:0166    C$ADC.C$378$1$1
  0C:0166    XG$ADC_uwGetResultData0$0$0
  0C:0167    A$CAN$1408
  0C:0167    C$CAN.C$124$0$0
  0C:0167    C$CAN.C$140$1$1
  0C:0167    G$CAN_vInit$0$0
  0C:0167    _CAN_vInit
  0C:016A    A$CAN$1409
  0C:016D    A$CAN$1412
  0C:016D    C$CAN.C$141$1$1
  0C:0170    A$CAN$1416
  0C:0170    C$CAN.C$142$1$1
  0C:0172    A$CAN$1417
  0C:0175    A$CAN$1420
  0C:0175    C$CAN.C$144$2$2
  0C:0178    A$CAN$1421
  0C:017A    A$CAN$1425
  0C:017A    C$CAN.C$156$1$1
  0C:017D    A$CAN$1426
  0C:0180    A$CAN$1429
  0C:0180    C$CAN.C$157$1$1
  0C:0183    A$CAN$1432
  0C:0183    C$CAN.C$158$1$1
  0C:0186    A$CAN$1434
  0C:0188    A$CAN$1435
  0C:018B    A$CAN$1438
  0C:018B    C$CAN.C$173$1$1
  0C:018E    A$CAN$1439
  0C:0191    A$CAN$1442
  0C:0191    C$CAN.C$174$1$1
  0C:0194    A$CAN$1445
  0C:0194    C$CAN.C$175$1$1
  0C:0197    A$CAN$1447
  0C:0199    A$CAN$1448
  0C:019C    A$CAN$1451
  0C:019C    C$CAN.C$180$1$1
  0C:019F    A$CAN$1454
  0C:019F    C$CAN.C$185$1$1
  0C:01A2    A$CAN$1457
  0C:01A2    C$CAN.C$186$1$1
  0C:01A5    A$CAN$1460
  0C:01A5    C$CAN.C$187$1$1
  0C:01A8    A$CAN$1462
  0C:01AA    A$CAN$1463
  0C:01AD    A$CAN$1466
  0C:01AD    C$CAN.C$201$1$1
  0C:01B0    A$CAN$1469
  0C:01B0    C$CAN.C$202$1$1
  0C:01B3    A$CAN$1472
  0C:01B3    C$CAN.C$203$1$1
  0C:01B6    A$CAN$1474
  0C:01B8    A$CAN$1475
  0C:01BB    A$CAN$1478
  0C:01BB    C$CAN.C$221$1$1
  0C:01BE    A$CAN$1481
  0C:01BE    C$CAN.C$222$1$1
  0C:01C1    A$CAN$1484
  0C:01C1    C$CAN.C$223$1$1
  0C:01C4    A$CAN$1486
  0C:01C6    A$CAN$1487
  0C:01C9    A$CAN$1490
  0C:01C9    C$CAN.C$234$1$1
  0C:01CC    A$CAN$1493
  0C:01CC    C$CAN.C$235$1$1
  0C:01CF    A$CAN$1495
  0C:01D1    A$CAN$1496
  0C:01D4    A$CAN$1499
  0C:01D4    C$CAN.C$248$1$1
  0C:01D7    A$CAN$1502
  0C:01D7    C$CAN.C$249$1$1
  0C:01DA    A$CAN$1505
  0C:01DA    C$CAN.C$250$1$1
  0C:01DD    A$CAN$1508
  0C:01DD    C$CAN.C$251$1$1
  0C:01E0    A$CAN$1510
  0C:01E2    A$CAN$1511
  0C:01E5    A$CAN$1514
  0C:01E5    C$CAN.C$261$1$1
  0C:01E8    A$CAN$1517
  0C:01E8    C$CAN.C$262$1$1
  0C:01EB    A$CAN$1520
  0C:01EB    C$CAN.C$263$1$1
  0C:01EE    A$CAN$1523
  0C:01EE    C$CAN.C$265$1$1
  0C:01F1    A$CAN$1526
  0C:01F1    C$CAN.C$266$1$1
  0C:01F4    A$CAN$1529
  0C:01F4    C$CAN.C$273$1$1
  0C:01F7    A$CAN$1530
  0C:01FA    A$CAN$1533
  0C:01FA    C$CAN.C$276$1$1
  0C:01FD    A$CAN$1534
  0C:01FE    A$CAN$1535
  0C:0200    A$CAN$1536
  0C:0202    A$CAN$1537
  0C:0205    A$CAN$1540
  0C:0205    C$CAN.C$290$1$1
  0C:0208    A$CAN$1541
  0C:020B    A$CAN$1544
  0C:020B    C$CAN.C$292$1$1
  0C:020E    A$CAN$1545
  0C:0211    A$CAN$1546
  0C:0213    A$CAN$1547
  0C:0216    A$CAN$1550
  0C:0216    C$CAN.C$295$1$1
  0C:0219    A$CAN$1553
  0C:0219    C$CAN.C$304$1$1
  0C:021C    A$CAN$1554
  0C:021F    A$CAN$1555
  0C:0221    A$CAN$1556
  0C:0224    A$CAN$1559
  0C:0224    C$CAN.C$307$1$1
  0C:0227    A$CAN$1562
  0C:0227    C$CAN.C$312$1$1
  0C:022A    A$CAN$1563
  0C:022B    A$CAN$1564
  0C:022D    A$CAN$1565
  0C:0230    A$CAN$1568
  0C:0230    C$CAN.C$315$1$1
  0C:0233    A$CAN$1571
  0C:0233    C$CAN.C$319$1$1
  0C:0236    A$CAN$1572
  0C:0237    A$CAN$1573
  0C:0239    A$CAN$1574
  0C:023C    A$CAN$1577
  0C:023C    C$CAN.C$322$1$1
  0C:023F    A$CAN$1580
  0C:023F    C$CAN.C$329$1$1
  0C:0242    A$CAN$1581
  0C:0245    A$CAN$1582
  0C:0247    A$CAN$1583
  0C:024A    A$CAN$1586
  0C:024A    C$CAN.C$332$1$1
  0C:024D    A$CAN$1589
  0C:024D    C$CAN.C$338$1$1
  0C:0250    A$CAN$1590
  0C:0251    A$CAN$1591
  0C:0253    A$CAN$1592
  0C:0256    A$CAN$1595
  0C:0256    C$CAN.C$341$1$1
  0C:0259    A$CAN$1598
  0C:0259    C$CAN.C$346$1$1
  0C:025C    A$CAN$1599
  0C:025D    A$CAN$1600
  0C:025F    A$CAN$1601
  0C:0262    A$CAN$1604
  0C:0262    C$CAN.C$349$1$1
  0C:0265    A$CAN$1607
  0C:0265    C$CAN.C$356$1$1
  0C:0268    A$CAN$1608
  0C:0269    A$CAN$1609
  0C:026B    A$CAN$1610
  0C:026D    A$CAN$1611
  0C:0270    A$CAN$1614
  0C:0270    C$CAN.C$504$1$1
  0C:0273    A$CAN$1615
  0C:0276    A$CAN$1618
  0C:0276    C$CAN.C$505$1$1
  0C:0279    A$CAN$1620
  0C:027B    A$CAN$1621
  0C:027E    A$CAN$1624
  0C:027E    C$CAN.C$506$1$1
  0C:0281    A$CAN$1627
  0C:0281    C$CAN.C$507$1$1
  0C:0284    A$CAN$1629
  0C:0286    A$CAN$1630
  0C:0289    A$CAN$1633
  0C:0289    C$CAN.C$515$1$1
  0C:0289    XG$CAN_vInit$0$0
  0C:028A    A$CAN$1647
  0C:028A    C$CAN.C$554$1$1
  0C:028A    G$CAN_vWriteAMData$0$0
  0C:028A    _CAN_vWriteAMData
  0C:028C    A$CAN$1648
  0C:028E    A$CAN$1649
  0C:0290    A$CAN$1650
  0C:0291    A$CAN$1653
  0C:0291    C$CAN.C$557$1$1
  0C:0293    A$CAN$1654
  0C:0295    A$CAN$1655
  0C:0297    A$CAN$1656
  0C:0299    A$CAN$1659
  0C:0299    C$CAN.C$559$1$1
  0C:029C    A$CAN$1662
  0C:029C    C$CAN.C$560$1$1
  0C:029F    A$CAN$1665
  0C:029F    C$CAN.C$561$1$1
  0C:02A2    A$CAN$1668
  0C:02A2    C$CAN.C$562$1$1
  0C:02A5    A$CAN$1671
  0C:02A5    C$CAN.C$563$1$1
  0C:02A8    A$CAN$1673
  0C:02AA    A$CAN$1674
  0C:02AD    A$CAN$1677
  0C:02AD    C$CAN.C$564$1$1
  0C:02AD    XG$CAN_vWriteAMData$0$0
  0C:02AE    A$CAN$1692
  0C:02AE    C$CAN.C$606$1$1
  0C:02AE    C$CAN.C$610$1$1
  0C:02AE    G$CAN_ulGetCANData$0$0
  0C:02AE    _CAN_ulGetCANData
  0C:02B1    A$CAN$1694
  0C:02B3    A$CAN$1695
  0C:02B6    A$CAN$1698
  0C:02B6    C$CAN.C$611$1$1
  0C:02B9    A$CAN$1701
  0C:02B9    C$CAN.C$612$1$1
  0C:02BC    A$CAN$1704
  0C:02BC    C$CAN.C$613$1$1
  0C:02BF    A$CAN$1707
  0C:02BF    C$CAN.C$614$1$1
  0C:02C2    A$CAN$1710
  0C:02C2    C$CAN.C$615$1$1
  0C:02C5    A$CAN$1711
  0C:02C8    A$CAN$1712
  0C:02CB    A$CAN$1713
  0C:02CD    A$CAN$1716
  0C:02CD    C$CAN.C$616$1$1
  0C:02CD    XG$CAN_ulGetCANData$0$0
  0C:02CE    A$CAN$1731
  0C:02CE    C$CAN.C$641$1$1
  0C:02CE    C$CAN.C$643$1$1
  0C:02CE    G$CAN_vSetListCommand$0$0
  0C:02CE    _CAN_vSetListCommand
  0C:02D1    A$CAN$1734
  0C:02D1    C$CAN.C$644$1$1
  0C:02D4    A$CAN$1738
  0C:02D4    C$CAN.C$645$1$1
  0C:02D6    A$CAN$1739
  0C:02D9    A$CAN$1742
  0C:02D9    C$CAN.C$647$2$2
  0C:02DC    A$CAN$1743
  0C:02DE    A$CAN$1747
  0C:02DE    C$CAN.C$649$1$1
  0C:02DE    XG$CAN_vSetListCommand$0$0
  0C:02DF    A$CAN$1765
  0C:02DF    C$CAN.C$679$1$1
  0C:02DF    G$CAN_vGetMsgObj$0$0
  0C:02DF    _CAN_vGetMsgObj
  0C:02E1    A$CAN$1769
  0C:02E1    C$CAN.C$683$1$1
  0C:02E3    A$CAN$1770
  0C:02E6    A$CAN$1771
  0C:02F2    A$CAN$1774
  0C:02F2    C$CAN.C$687$1$1
  0C:02F3    A$CAN$1775
  0C:02F4    A$CAN$1776
  0C:02F5    A$CAN$1777
  0C:02F7    A$CAN$1778
  0C:02F9    A$CAN$1779
  0C:02FC    A$CAN$1780
  0C:02FD    A$CAN$1781
  0C:0300    A$CAN$1782
  0C:0301    A$CAN$1783
  0C:0302    A$CAN$1784
  0C:0304    A$CAN$1785
  0C:0306    A$CAN$1786
  0C:0308    A$CAN$1787
  0C:0309    A$CAN$1788
  0C:030A    A$CAN$1789
  0C:030C    A$CAN$1790
  0C:030E    A$CAN$1793
  0C:030E    C$CAN.C$688$1$1
  0C:0311    A$CAN$1795
  0C:0313    A$CAN$1796
  0C:0316    A$CAN$1799
  0C:0316    C$CAN.C$690$1$1
  0C:0318    A$CAN$1800
  0C:031A    A$CAN$1801
  0C:031C    A$CAN$1802
  0C:031E    A$CAN$1803
  0C:0320    A$CAN$1804
  0C:0322    A$CAN$1805
  0C:0324    A$CAN$1806
  0C:0327    A$CAN$1809
  0C:0327    C$CAN.C$693$1$1
  0C:0329    A$CAN$1810
  0C:032B    A$CAN$1811
  0C:032D    A$CAN$1812
  0C:032F    A$CAN$1813
  0C:0330    A$CAN$1814
  0C:0332    A$CAN$1815
  0C:0333    A$CAN$1816
  0C:0334    A$CAN$1817
  0C:0336    A$CAN$1818
  0C:0338    A$CAN$1821
  0C:0338    C$CAN.C$695$1$1
  0C:033B    A$CAN$1823
  0C:033D    A$CAN$1824
  0C:0340    A$CAN$1827
  0C:0340    C$CAN.C$696$1$1
  0C:0342    A$CAN$1828
  0C:0343    A$CAN$1829
  0C:0344    A$CAN$1830
  0C:0345    A$CAN$1831
  0C:0346    A$CAN$1832
  0C:0347    A$CAN$1833
  0C:0349    A$CAN$1834
  0C:034B    A$CAN$1835
  0C:034D    A$CAN$1836
  0C:034F    A$CAN$1837
  0C:0351    A$CAN$1838
  0C:0354    A$CAN$1841
  0C:0354    C$CAN.C$697$1$1
  0C:0356    A$CAN$1842
  0C:0357    A$CAN$1843
  0C:0359    A$CAN$1844
  0C:035A    A$CAN$1845
  0C:035B    A$CAN$1846
  0C:035D    A$CAN$1847
  0C:035F    A$CAN$1848
  0C:0361    A$CAN$1849
  0C:0363    A$CAN$1850
  0C:0364    A$CAN$1851
  0C:0365    A$CAN$1852
  0C:0367    A$CAN$1853
  0C:0368    A$CAN$1854
  0C:036A    A$CAN$1855
  0C:036C    A$CAN$1856
  0C:036E    A$CAN$1857
  0C:0370    A$CAN$1858
  0C:0372    A$CAN$1859
  0C:0375    A$CAN$1862
  0C:0375    C$CAN.C$698$1$1
  0C:0377    A$CAN$1863
  0C:0379    A$CAN$1864
  0C:037A    A$CAN$1865
  0C:037B    A$CAN$1866
  0C:037D    A$CAN$1867
  0C:037E    A$CAN$1868
  0C:0380    A$CAN$1869
  0C:0382    A$CAN$1870
  0C:0384    A$CAN$1871
  0C:0386    A$CAN$1872
  0C:0388    A$CAN$1873
  0C:038B    A$CAN$1876
  0C:038B    C$CAN.C$699$1$1
  0C:038D    A$CAN$1877
  0C:038F    A$CAN$1878
  0C:0390    A$CAN$1879
  0C:0391    A$CAN$1880
  0C:0393    A$CAN$1881
  0C:0394    A$CAN$1882
  0C:0396    A$CAN$1883
  0C:0398    A$CAN$1884
  0C:039A    A$CAN$1885
  0C:039C    A$CAN$1886
  0C:039E    A$CAN$1887
  0C:03A1    A$CAN$1890
  0C:03A1    C$CAN.C$702$1$1
  0C:03A4    A$CAN$1893
  0C:03A7    A$CAN$1899
  0C:03A7    C$CAN.C$706$1$1
  0C:03A9    A$CAN$1900
  0C:03AC    A$CAN$1903
  0C:03AC    C$CAN.C$707$1$1
  0C:03AE    A$CAN$1904
  0C:03AF    A$CAN$1905
  0C:03B0    A$CAN$1906
  0C:03B1    A$CAN$1907
  0C:03B2    A$CAN$1908
  0C:03B3    A$CAN$1909
  0C:03B5    A$CAN$1910
  0C:03B7    A$CAN$1911
  0C:03B9    A$CAN$1912
  0C:03BB    A$CAN$1913
  0C:03BD    A$CAN$1914
  0C:03C0    A$CAN$1917
  0C:03C0    C$CAN.C$708$1$1
  0C:03C2    A$CAN$1918
  0C:03C3    A$CAN$1919
  0C:03C4    A$CAN$1920
  0C:03C5    A$CAN$1921
  0C:03C6    A$CAN$1922
  0C:03C7    A$CAN$1923
  0C:03C9    A$CAN$1924
  0C:03CB    A$CAN$1925
  0C:03CD    A$CAN$1926
  0C:03CF    A$CAN$1927
  0C:03D1    A$CAN$1928
  0C:03D2    A$CAN$1929
  0C:03D3    A$CAN$1930
  0C:03D4    A$CAN$1931
  0C:03D5    A$CAN$1932
  0C:03D6    A$CAN$1933
  0C:03D8    A$CAN$1934
  0C:03DA    A$CAN$1935
  0C:03DC    A$CAN$1936
  0C:03DE    A$CAN$1937
  0C:03E0    A$CAN$1938
  0C:03E3    A$CAN$1941
  0C:03E3    C$CAN.C$709$1$1
  0C:03E5    A$CAN$1942
  0C:03E6    A$CAN$1943
  0C:03E7    A$CAN$1944
  0C:03E8    A$CAN$1945
  0C:03E9    A$CAN$1946
  0C:03EA    A$CAN$1947
  0C:03EC    A$CAN$1948
  0C:03EE    A$CAN$1949
  0C:03F0    A$CAN$1950
  0C:03F2    A$CAN$1951
  0C:03F4    A$CAN$1952
  0C:03F7    A$CAN$1955
  0C:03F7    C$CAN.C$710$1$1
  0C:03F9    A$CAN$1956
  0C:03FA    A$CAN$1957
  0C:03FB    A$CAN$1958
  0C:03FC    A$CAN$1959
  0C:03FD    A$CAN$1960
  0C:03FE    A$CAN$1961
  0C:0400    A$CAN$1962
  0C:0402    A$CAN$1963
  0C:0404    A$CAN$1964
  0C:0406    A$CAN$1965
  0C:0409    A$CAN$1968
  0C:0409    C$CAN.C$713$1$1
  0C:040B    A$CAN$1969
  0C:040D    A$CAN$1970
  0C:040F    A$CAN$1971
  0C:0411    A$CAN$1972
  0C:0412    A$CAN$1973
  0C:0414    A$CAN$1974
  0C:0415    A$CAN$1975
  0C:0416    A$CAN$1976
  0C:0418    A$CAN$1977
  0C:041A    A$CAN$1980
  0C:041D    A$CAN$1983
  0C:041F    A$CAN$1984
  0C:0421    A$CAN$1985
  0C:0423    A$CAN$1989
  0C:0423    C$CAN.C$714$1$1
  0C:0425    A$CAN$1990
  0C:0428    A$CAN$1993
  0C:0428    C$CAN.C$716$1$1
  0C:042A    A$CAN$1994
  0C:042D    A$CAN$1997
  0C:042F    A$CAN$1998
  0C:0431    A$CAN$1999
  0C:0433    A$CAN$2000
  0C:0434    A$CAN$2001
  0C:0435    A$CAN$2002
  0C:0436    A$CAN$2003
  0C:0437    A$CAN$2004
  0C:0438    A$CAN$2005
  0C:043A    A$CAN$2006
  0C:043C    A$CAN$2007
  0C:043E    A$CAN$2008
  0C:0440    A$CAN$2009
  0C:0443    A$CAN$2010
  0C:0444    A$CAN$2011
  0C:0447    A$CAN$2012
  0C:0449    A$CAN$2013
  0C:044B    A$CAN$2014
  0C:044D    A$CAN$2015
  0C:044E    A$CAN$2016
  0C:0451    A$CAN$2019
  0C:0453    A$CAN$2020
  0C:0455    A$CAN$2026
  0C:0455    C$CAN.C$718$1$1
  0C:0455    C$CAN.C$724$1$1
  0C:0458    A$CAN$2029
  0C:0458    C$CAN.C$725$1$1
  0C:045B    A$CAN$2031
  0C:045D    A$CAN$2032
  0C:0460    A$CAN$2035
  0C:0460    C$CAN.C$727$1$1
  0C:0462    A$CAN$2036
  0C:0465    A$CAN$2037
  0C:0468    A$CAN$2041
  0C:0468    C$CAN.C$731$1$1
  0C:046A    A$CAN$2042
  0C:046C    A$CAN$2043
  0C:046E    A$CAN$2044
  0C:046F    A$CAN$2045
  0C:0470    A$CAN$2046
  0C:0471    A$CAN$2047
  0C:0472    A$CAN$2048
  0C:0473    A$CAN$2049
  0C:0475    A$CAN$2050
  0C:0477    A$CAN$2051
  0C:0479    A$CAN$2052
  0C:047B    A$CAN$2053
  0C:047D    A$CAN$2054
  0C:0480    A$CAN$2057
  0C:0480    C$CAN.C$732$2$3
  0C:0482    A$CAN$2058
  0C:0483    A$CAN$2059
  0C:0485    A$CAN$2060
  0C:0486    A$CAN$2061
  0C:0487    A$CAN$2062
  0C:0489    A$CAN$2063
  0C:048B    A$CAN$2064
  0C:048D    A$CAN$2065
  0C:048F    A$CAN$2066
  0C:0490    A$CAN$2067
  0C:0491    A$CAN$2068
  0C:0493    A$CAN$2069
  0C:0494    A$CAN$2070
  0C:0496    A$CAN$2071
  0C:0498    A$CAN$2072
  0C:049A    A$CAN$2073
  0C:049C    A$CAN$2074
  0C:049E    A$CAN$2075
  0C:04A1    A$CAN$2078
  0C:04A1    C$CAN.C$733$2$3
  0C:04A3    A$CAN$2079
  0C:04A5    A$CAN$2080
  0C:04A6    A$CAN$2081
  0C:04A7    A$CAN$2082
  0C:04A9    A$CAN$2083
  0C:04AA    A$CAN$2084
  0C:04AC    A$CAN$2085
  0C:04AE    A$CAN$2086
  0C:04B0    A$CAN$2087
  0C:04B2    A$CAN$2088
  0C:04B4    A$CAN$2089
  0C:04B7    A$CAN$2092
  0C:04B7    C$CAN.C$734$2$3
  0C:04B9    A$CAN$2093
  0C:04BB    A$CAN$2094
  0C:04BC    A$CAN$2095
  0C:04BD    A$CAN$2096
  0C:04BF    A$CAN$2097
  0C:04C0    A$CAN$2098
  0C:04C2    A$CAN$2099
  0C:04C4    A$CAN$2100
  0C:04C6    A$CAN$2101
  0C:04C7    A$CAN$2102
  0C:04C9    A$CAN$2103
  0C:04CB    A$CAN$2104
  0C:04CD    A$CAN$2105
  0C:04D0    A$CAN$2108
  0C:04D0    C$CAN.C$737$2$3
  0C:04D3    A$CAN$2111
  0C:04D3    C$CAN.C$740$2$3
  0C:04D6    A$CAN$2114
  0C:04D6    C$CAN.C$743$2$3
  0C:04D9    A$CAN$2117
  0C:04DC    A$CAN$2120
  0C:04DE    A$CAN$2121
  0C:04E0    A$CAN$2125
  0C:04E0    C$CAN.C$745$2$3
  0C:04E2    A$CAN$2126
  0C:04E5    A$CAN$2129
  0C:04E5    C$CAN.C$748$1$1
  0C:04E7    A$CAN$2130
  0C:04E9    A$CAN$2131
  0C:04EB    A$CAN$2132
  0C:04EC    A$CAN$2133
  0C:04ED    A$CAN$2134
  0C:04EE    A$CAN$2135
  0C:04EF    A$CAN$2136
  0C:04F0    A$CAN$2137
  0C:04F2    A$CAN$2138
  0C:04F4    A$CAN$2139
  0C:04F6    A$CAN$2140
  0C:04F8    A$CAN$2141
  0C:04FA    A$CAN$2142
  0C:04FD    A$CAN$2145
  0C:04FD    C$CAN.C$749$2$3
  0C:04FF    A$CAN$2146
  0C:0500    A$CAN$2147
  0C:0502    A$CAN$2148
  0C:0503    A$CAN$2149
  0C:0504    A$CAN$2150
  0C:0506    A$CAN$2151
  0C:0508    A$CAN$2152
  0C:050A    A$CAN$2153
  0C:050C    A$CAN$2154
  0C:050D    A$CAN$2155
  0C:050E    A$CAN$2156
  0C:0510    A$CAN$2157
  0C:0511    A$CAN$2158
  0C:0513    A$CAN$2159
  0C:0515    A$CAN$2160
  0C:0517    A$CAN$2161
  0C:0519    A$CAN$2162
  0C:051B    A$CAN$2163
  0C:051E    A$CAN$2166
  0C:051E    C$CAN.C$750$2$3
  0C:0520    A$CAN$2167
  0C:0522    A$CAN$2168
  0C:0523    A$CAN$2169
  0C:0524    A$CAN$2170
  0C:0526    A$CAN$2171
  0C:0527    A$CAN$2172
  0C:0529    A$CAN$2173
  0C:052B    A$CAN$2174
  0C:052D    A$CAN$2175
  0C:052F    A$CAN$2176
  0C:0531    A$CAN$2177
  0C:0534    A$CAN$2180
  0C:0534    C$CAN.C$751$2$3
  0C:0536    A$CAN$2181
  0C:0538    A$CAN$2182
  0C:0539    A$CAN$2183
  0C:053A    A$CAN$2184
  0C:053C    A$CAN$2185
  0C:053D    A$CAN$2186
  0C:053F    A$CAN$2187
  0C:0541    A$CAN$2188
  0C:0543    A$CAN$2189
  0C:0545    A$CAN$2190
  0C:0547    A$CAN$2191
  0C:0549    A$CAN$2192
  0C:054C    A$CAN$2195
  0C:054C    C$CAN.C$753$2$3
  0C:054E    A$CAN$2196
  0C:054F    A$CAN$2197
  0C:0550    A$CAN$2198
  0C:0551    A$CAN$2199
  0C:0552    A$CAN$2200
  0C:0553    A$CAN$2201
  0C:0555    A$CAN$2202
  0C:0557    A$CAN$2203
  0C:0559    A$CAN$2204
  0C:055B    A$CAN$2205
  0C:055E    A$CAN$2206
  0C:055F    A$CAN$2207
  0C:0562    A$CAN$2208
  0C:0564    A$CAN$2209
  0C:0566    A$CAN$2210
  0C:0568    A$CAN$2211
  0C:0569    A$CAN$2212
  0C:056C    A$CAN$2213
  0C:056E    A$CAN$2214
  0C:0570    A$CAN$2215
  0C:0573    A$CAN$2219
  0C:0573    C$CAN.C$758$1$1
  0C:0575    A$CAN$2220
  0C:0577    A$CAN$2221
  0C:0579    A$CAN$2222
  0C:057A    A$CAN$2223
  0C:057B    A$CAN$2224
  0C:057C    A$CAN$2225
  0C:057D    A$CAN$2226
  0C:057E    A$CAN$2227
  0C:0580    A$CAN$2228
  0C:0582    A$CAN$2229
  0C:0584    A$CAN$2230
  0C:0585    A$CAN$2231
  0C:0586    A$CAN$2232
  0C:0588    A$CAN$2233
  0C:058A    A$CAN$2234
  0C:058C    A$CAN$2235
  0C:058E    A$CAN$2236
  0C:0591    A$CAN$2239
  0C:0591    C$CAN.C$759$2$4
  0C:0593    A$CAN$2240
  0C:0594    A$CAN$2241
  0C:0596    A$CAN$2242
  0C:0597    A$CAN$2243
  0C:0598    A$CAN$2244
  0C:059A    A$CAN$2245
  0C:059C    A$CAN$2246
  0C:059E    A$CAN$2247
  0C:05A0    A$CAN$2248
  0C:05A2    A$CAN$2249
  0C:05A3    A$CAN$2250
  0C:05A5    A$CAN$2251
  0C:05A7    A$CAN$2252
  0C:05AA    A$CAN$2253
  0C:05AC    A$CAN$2254
  0C:05AE    A$CAN$2255
  0C:05B1    A$CAN$2256
  0C:05B4    A$CAN$2257
  0C:05B7    A$CAN$2258
  0C:05BA    A$CAN$2261
  0C:05BA    C$CAN.C$760$2$4
  0C:05BC    A$CAN$2262
  0C:05BE    A$CAN$2263
  0C:05BF    A$CAN$2264
  0C:05C0    A$CAN$2265
  0C:05C2    A$CAN$2266
  0C:05C3    A$CAN$2267
  0C:05C5    A$CAN$2268
  0C:05C7    A$CAN$2269
  0C:05C9    A$CAN$2270
  0C:05CB    A$CAN$2271
  0C:05CC    A$CAN$2272
  0C:05CF    A$CAN$2275
  0C:05CF    C$CAN.C$761$2$4
  0C:05D1    A$CAN$2276
  0C:05D3    A$CAN$2277
  0C:05D4    A$CAN$2278
  0C:05D5    A$CAN$2279
  0C:05D7    A$CAN$2280
  0C:05D8    A$CAN$2281
  0C:05DA    A$CAN$2282
  0C:05DC    A$CAN$2283
  0C:05DE    A$CAN$2284
  0C:05E0    A$CAN$2285
  0C:05E1    A$CAN$2286
  0C:05E4    A$CAN$2289
  0C:05E4    C$CAN.C$764$2$4
  0C:05E7    A$CAN$2290
  0C:05EA    A$CAN$2291
  0C:05ED    A$CAN$2292
  0C:05F0    A$CAN$2293
  0C:05F2    A$CAN$2294
  0C:05F3    A$CAN$2295
  0C:05F4    A$CAN$2296
  0C:05F6    A$CAN$2297
  0C:05F8    A$CAN$2300
  0C:05F8    C$CAN.C$765$2$4
  0C:05FB    A$CAN$2301
  0C:05FE    A$CAN$2302
  0C:0601    A$CAN$2303
  0C:0604    A$CAN$2304
  0C:0605    A$CAN$2305
  0C:0606    A$CAN$2306
  0C:0608    A$CAN$2307
  0C:060B    A$CAN$2308
  0C:060E    A$CAN$2309
  0C:0611    A$CAN$2310
  0C:0614    A$CAN$2313
  0C:0614    C$CAN.C$766$2$4
  0C:0616    A$CAN$2314
  0C:0617    A$CAN$2315
  0C:0618    A$CAN$2316
  0C:0619    A$CAN$2317
  0C:061A    A$CAN$2318
  0C:061B    A$CAN$2319
  0C:061D    A$CAN$2320
  0C:061F    A$CAN$2321
  0C:0621    A$CAN$2322
  0C:0623    A$CAN$2323
  0C:0626    A$CAN$2324
  0C:0627    A$CAN$2325
  0C:0629    A$CAN$2326
  0C:062A    A$CAN$2327
  0C:062B    A$CAN$2328
  0C:062D    A$CAN$2329
  0C:062F    A$CAN$2330
  0C:0631    A$CAN$2331
  0C:0634    A$CAN$2334
  0C:0634    C$CAN.C$769$2$4
  0C:0637    A$CAN$2337
  0C:0637    C$CAN.C$772$2$4
  0C:063A    A$CAN$2340
  0C:063A    C$CAN.C$775$2$4
  0C:063D    A$CAN$2343
  0C:0640    A$CAN$2346
  0C:0642    A$CAN$2347
  0C:0644    A$CAN$2351
  0C:0644    C$CAN.C$777$2$4
  0C:0646    A$CAN$2352
  0C:0649    A$CAN$2355
  0C:0649    C$CAN.C$781$1$1
  0C:064B    A$CAN$2356
  0C:064D    A$CAN$2357
  0C:064F    A$CAN$2358
  0C:0650    A$CAN$2359
  0C:0651    A$CAN$2360
  0C:0652    A$CAN$2361
  0C:0653    A$CAN$2362
  0C:0654    A$CAN$2363
  0C:0656    A$CAN$2364
  0C:0658    A$CAN$2365
  0C:065A    A$CAN$2366
  0C:065B    A$CAN$2367
  0C:065C    A$CAN$2368
  0C:065E    A$CAN$2369
  0C:0660    A$CAN$2370
  0C:0662    A$CAN$2371
  0C:0664    A$CAN$2372
  0C:0667    A$CAN$2375
  0C:0667    C$CAN.C$782$2$4
  0C:0669    A$CAN$2376
  0C:066A    A$CAN$2377
  0C:066C    A$CAN$2378
  0C:066D    A$CAN$2379
  0C:066E    A$CAN$2380
  0C:0670    A$CAN$2381
  0C:0672    A$CAN$2382
  0C:0674    A$CAN$2383
  0C:0676    A$CAN$2384
  0C:0678    A$CAN$2385
  0C:0679    A$CAN$2386
  0C:067B    A$CAN$2387
  0C:067D    A$CAN$2388
  0C:0680    A$CAN$2389
  0C:0682    A$CAN$2390
  0C:0684    A$CAN$2391
  0C:0687    A$CAN$2392
  0C:068A    A$CAN$2393
  0C:068D    A$CAN$2394
  0C:0690    A$CAN$2397
  0C:0690    C$CAN.C$783$2$4
  0C:0692    A$CAN$2398
  0C:0694    A$CAN$2399
  0C:0695    A$CAN$2400
  0C:0696    A$CAN$2401
  0C:0698    A$CAN$2402
  0C:0699    A$CAN$2403
  0C:069B    A$CAN$2404
  0C:069D    A$CAN$2405
  0C:069F    A$CAN$2406
  0C:06A1    A$CAN$2407
  0C:06A2    A$CAN$2408
  0C:06A5    A$CAN$2411
  0C:06A5    C$CAN.C$784$2$4
  0C:06A7    A$CAN$2412
  0C:06A9    A$CAN$2413
  0C:06AA    A$CAN$2414
  0C:06AB    A$CAN$2415
  0C:06AD    A$CAN$2416
  0C:06AE    A$CAN$2417
  0C:06B0    A$CAN$2418
  0C:06B2    A$CAN$2419
  0C:06B4    A$CAN$2420
  0C:06B6    A$CAN$2421
  0C:06B7    A$CAN$2422
  0C:06BA    A$CAN$2425
  0C:06BA    C$CAN.C$787$2$4
  0C:06BD    A$CAN$2426
  0C:06C0    A$CAN$2427
  0C:06C3    A$CAN$2428
  0C:06C6    A$CAN$2429
  0C:06C8    A$CAN$2430
  0C:06C9    A$CAN$2431
  0C:06CA    A$CAN$2432
  0C:06CC    A$CAN$2433
  0C:06CE    A$CAN$2436
  0C:06CE    C$CAN.C$788$2$4
  0C:06D1    A$CAN$2437
  0C:06D4    A$CAN$2438
  0C:06D7    A$CAN$2439
  0C:06DA    A$CAN$2440
  0C:06DB    A$CAN$2441
  0C:06DC    A$CAN$2442
  0C:06DE    A$CAN$2443
  0C:06E1    A$CAN$2444
  0C:06E4    A$CAN$2445
  0C:06E7    A$CAN$2446
  0C:06EA    A$CAN$2449
  0C:06EA    C$CAN.C$789$2$4
  0C:06EC    A$CAN$2450
  0C:06ED    A$CAN$2451
  0C:06EE    A$CAN$2452
  0C:06EF    A$CAN$2453
  0C:06F0    A$CAN$2454
  0C:06F1    A$CAN$2455
  0C:06F3    A$CAN$2456
  0C:06F5    A$CAN$2457
  0C:06F7    A$CAN$2458
  0C:06F9    A$CAN$2459
  0C:06FC    A$CAN$2460
  0C:06FD    A$CAN$2461
  0C:06FF    A$CAN$2462
  0C:0700    A$CAN$2463
  0C:0701    A$CAN$2464
  0C:0703    A$CAN$2465
  0C:0705    A$CAN$2466
  0C:0707    A$CAN$2467
  0C:070A    A$CAN$2470
  0C:070C    A$CAN$2471
  0C:070E    A$CAN$2477
  0C:070E    C$CAN.C$789$1$1
  0C:070E    C$CAN.C$794$1$1
  0C:0710    A$CAN$2478
  0C:0712    A$CAN$2479
  0C:0714    A$CAN$2480
  0C:0716    A$CAN$2481
  0C:0717    A$CAN$2482
  0C:0719    A$CAN$2483
  0C:071A    A$CAN$2484
  0C:071B    A$CAN$2485
  0C:071D    A$CAN$2486
  0C:071F    A$CAN$2489
  0C:071F    C$CAN.C$795$1$1
  0C:0722    A$CAN$2491
  0C:0724    A$CAN$2492
  0C:0727    A$CAN$2495
  0C:0727    C$CAN.C$797$1$1
  0C:0729    A$CAN$2496
  0C:072A    A$CAN$2497
  0C:072B    A$CAN$2498
  0C:072C    A$CAN$2499
  0C:072D    A$CAN$2500
  0C:072E    A$CAN$2501
  0C:0730    A$CAN$2502
  0C:0732    A$CAN$2503
  0C:0734    A$CAN$2504
  0C:0736    A$CAN$2505
  0C:0738    A$CAN$2506
  0C:073B    A$CAN$2509
  0C:073B    C$CAN.C$798$1$1
  0C:073D    A$CAN$2510
  0C:073E    A$CAN$2511
  0C:073F    A$CAN$2512
  0C:0740    A$CAN$2513
  0C:0741    A$CAN$2514
  0C:0742    A$CAN$2515
  0C:0743    A$CAN$2516
  0C:0746    A$CAN$2517
  0C:0747    A$CAN$2519
  0C:0749    A$CAN$2520
  0C:074B    A$CAN$2521
  0C:074D    A$CAN$2522
  0C:074F    A$CAN$2523
  0C:0752    A$CAN$2526
  0C:0752    C$CAN.C$800$1$1
  0C:075E    A$CAN$2529
  0C:075E    C$CAN.C$801$1$1
  0C:075E    XG$CAN_vGetMsgObj$0$0
  0C:075F    A$CAN$2542
  0C:075F    C$CAN.C$830$1$1
  0C:075F    G$CAN_vTransmit$0$0
  0C:075F    _CAN_vTransmit
  0C:0761    A$CAN$2546
  0C:0761    C$CAN.C$832$1$1
  0C:0763    A$CAN$2547
  0C:0766    A$CAN$2548
  0C:0772    A$CAN$2551
  0C:0772    C$CAN.C$834$1$1
  0C:0773    A$CAN$2552
  0C:0774    A$CAN$2553
  0C:0775    A$CAN$2554
  0C:0777    A$CAN$2555
  0C:0778    A$CAN$2556
  0C:077A    A$CAN$2557
  0C:077B    A$CAN$2558
  0C:077D    A$CAN$2559
  0C:077E    A$CAN$2560
  0C:0781    A$CAN$2561
  0C:0782    A$CAN$2562
  0C:0784    A$CAN$2563
  0C:0786    A$CAN$2564
  0C:0788    A$CAN$2565
  0C:0789    A$CAN$2566
  0C:078B    A$CAN$2567
  0C:078D    A$CAN$2570
  0C:078D    C$CAN.C$835$1$1
  0C:0790    A$CAN$2571
  0C:0793    A$CAN$2572
  0C:0796    A$CAN$2573
  0C:0799    A$CAN$2574
  0C:079C    A$CAN$2576
  0C:079E    A$CAN$2577
  0C:07A1    A$CAN$2580
  0C:07A1    C$CAN.C$837$1$1
  0C:07AD    A$CAN$2583
  0C:07AD    C$CAN.C$839$1$1
  0C:07AD    XG$CAN_vTransmit$0$0
  0C:07AE    A$CAN$2598
  0C:07AE    C$CAN.C$870$1$1
  0C:07AE    G$CAN_vLoadData$0$0
  0C:07AE    _CAN_vLoadData
  0C:07B0    A$CAN$2602
  0C:07B0    C$CAN.C$872$1$1
  0C:07B2    A$CAN$2603
  0C:07B5    A$CAN$2604
  0C:07C1    A$CAN$2607
  0C:07C1    C$CAN.C$874$1$1
  0C:07C2    A$CAN$2608
  0C:07C3    A$CAN$2609
  0C:07C4    A$CAN$2610
  0C:07C6    A$CAN$2611
  0C:07C7    A$CAN$2612
  0C:07C9    A$CAN$2613
  0C:07CA    A$CAN$2614
  0C:07CC    A$CAN$2615
  0C:07CD    A$CAN$2616
  0C:07D0    A$CAN$2617
  0C:07D1    A$CAN$2618
  0C:07D3    A$CAN$2619
  0C:07D5    A$CAN$2620
  0C:07D7    A$CAN$2621
  0C:07D8    A$CAN$2622
  0C:07DA    A$CAN$2623
  0C:07DC    A$CAN$2626
  0C:07DC    C$CAN.C$875$1$1
  0C:07DF    A$CAN$2627
  0C:07E2    A$CAN$2628
  0C:07E5    A$CAN$2629
  0C:07E8    A$CAN$2630
  0C:07EB    A$CAN$2632
  0C:07ED    A$CAN$2633
  0C:07F0    A$CAN$2636
  0C:07F0    C$CAN.C$878$1$1
  0C:07F3    A$CAN$2639
  0C:07F3    C$CAN.C$881$1$1
  0C:07F6    A$CAN$2642
  0C:07F6    C$CAN.C$884$1$1
  0C:07F9    A$CAN$2645
  0C:07F9    C$CAN.C$886$1$1
  0C:07FC    A$CAN$2646
  0C:07FF    A$CAN$2647
  0C:0802    A$CAN$2648
  0C:0805    A$CAN$2649
  0C:0808    A$CAN$2650
  0C:080B    A$CAN$2651
  0C:080E    A$CAN$2652
  0C:080F    A$CAN$2653
  0C:0810    A$CAN$2654
  0C:0813    A$CAN$2655
  0C:0814    A$CAN$2656
  0C:0815    A$CAN$2657
  0C:0818    A$CAN$2658
  0C:0819    A$CAN$2659
  0C:081A    A$CAN$2660
  0C:081D    A$CAN$2661
  0C:081E    A$CAN$2662
  0C:0820    A$CAN$2663
  0C:0822    A$CAN$2664
  0C:0824    A$CAN$2665
  0C:0826    A$CAN$2666
  0C:0828    A$CAN$2667
  0C:082A    A$CAN$2668
  0C:082C    A$CAN$2669
  0C:082E    A$CAN$2670
  0C:0830    A$CAN$2671
  0C:0832    A$CAN$2672
  0C:0834    A$CAN$2673
  0C:0836    A$CAN$2674
  0C:0838    A$CAN$2675
  0C:083B    A$CAN$2677
  0C:083D    A$CAN$2678
  0C:0840    A$CAN$2683
  0C:0840    C$CAN.C$889$1$1
  0C:0840    C$CAN.C$891$1$1
  0C:0842    A$CAN$2684
  0C:0844    A$CAN$2685
  0C:0846    A$CAN$2686
  0C:0848    A$CAN$2687
  0C:0849    A$CAN$2688
  0C:084B    A$CAN$2689
  0C:084D    A$CAN$2690
  0C:0850    A$CAN$2693
  0C:0850    C$CAN.C$893$1$1
  0C:0852    A$CAN$2694
  0C:0854    A$CAN$2695
  0C:0856    A$CAN$2696
  0C:0858    A$CAN$2697
  0C:085A    A$CAN$2698
  0C:085C    A$CAN$2699
  0C:085F    A$CAN$2700
  0C:0860    A$CAN$2701
  0C:0861    A$CAN$2702
  0C:0864    A$CAN$2703
  0C:0865    A$CAN$2704
  0C:0866    A$CAN$2705
  0C:0869    A$CAN$2706
  0C:086A    A$CAN$2707
  0C:086B    A$CAN$2708
  0C:086E    A$CAN$2709
  0C:086F    A$CAN$2710
  0C:0871    A$CAN$2711
  0C:0873    A$CAN$2712
  0C:0875    A$CAN$2713
  0C:0877    A$CAN$2714
  0C:0879    A$CAN$2715
  0C:087B    A$CAN$2716
  0C:087D    A$CAN$2717
  0C:087F    A$CAN$2718
  0C:0881    A$CAN$2719
  0C:0883    A$CAN$2720
  0C:0885    A$CAN$2721
  0C:0887    A$CAN$2722
  0C:0889    A$CAN$2723
  0C:088C    A$CAN$2725
  0C:088E    A$CAN$2726
  0C:0891    A$CAN$2729
  0C:0891    C$CAN.C$896$1$1
  0C:0894    A$CAN$2732
  0C:0894    C$CAN.C$899$1$1
  0C:0897    A$CAN$2735
  0C:0897    C$CAN.C$901$1$1
  0C:089A    A$CAN$2736
  0C:089D    A$CAN$2737
  0C:08A0    A$CAN$2738
  0C:08A3    A$CAN$2739
  0C:08A6    A$CAN$2741
  0C:08A8    A$CAN$2742
  0C:08AB    A$CAN$2745
  0C:08AB    C$CAN.C$903$1$1
  0C:08B7    A$CAN$2748
  0C:08B7    C$CAN.C$905$1$1
  0C:08B7    XG$CAN_vLoadData$0$0
  0C:08B8    A$IO$1373
  0C:08B8    C$IO.C$122$0$0
  0C:08B8    C$IO.C$212$1$1
  0C:08B8    G$IO_vInit$0$0
  0C:08B8    _IO_vInit
  0C:08BB    A$IO$1376
  0C:08BB    C$IO.C$231$1$1
  0C:08BB    XG$IO_vInit$0$0
  0C:08BC    A$SHARED_INT$1400
  0C:08BC    C$SHARED_INT.C$121$0$0
  0C:08BC    C$SHARED_INT.C$134$1$1
  0C:08BC    G$SHINT_vInit$0$0
  0C:08BC    _SHINT_vInit
  0C:08BF    A$SHARED_INT$1403
  0C:08BF    C$SHARED_INT.C$139$1$1
  0C:08C2    A$SHARED_INT$1406
  0C:08C2    C$SHARED_INT.C$147$1$1
  0C:08C2    XG$SHINT_vInit$0$0
  0C:08C3    A$SHARED_INT$1420
  0C:08C3    C$SHARED_INT.C$191$1$1
  0C:08C3    G$SHINT_viXINTR5Isr$0$0
  0C:08C3    _SHINT_viXINTR5Isr
  0C:08C5    A$SHARED_INT$1421
  0C:08C7    A$SHARED_INT$1422
  0C:08C9    A$SHARED_INT$1423
  0C:08CB    A$SHARED_INT$1424
  0C:08CD    A$SHARED_INT$1425
  0C:08CF    A$SHARED_INT$1426
  0C:08D1    A$SHARED_INT$1427
  0C:08D3    A$SHARED_INT$1428
  0C:08D5    A$SHARED_INT$1429
  0C:08D7    A$SHARED_INT$1430
  0C:08D9    A$SHARED_INT$1431
  0C:08DB    A$SHARED_INT$1432
  0C:08DD    A$SHARED_INT$1433
  0C:08DF    A$SHARED_INT$1434
  0C:08E2    A$SHARED_INT$1438
  0C:08E2    C$SHARED_INT.C$200$1$1
  0C:08E4    A$SHARED_INT$1439
  0C:08E7    A$SHARED_INT$1440
  0C:08F3    A$SHARED_INT$1443
  0C:08F3    C$SHARED_INT.C$202$1$1
  0C:08F6    A$SHARED_INT$1448
  0C:08F6    C$SHARED_INT.C$206$1$1
  0C:08F6    C$SHARED_INT.C$210$2$2
  0C:08F9    A$SHARED_INT$1449
  0C:08FB    A$SHARED_INT$1453
  0C:08FB    C$SHARED_INT.C$213$2$2
  0C:08FE    A$SHARED_INT$1454
  0C:0901    A$SHARED_INT$1455
  0C:0904    A$SHARED_INT$1456
  0C:0907    A$SHARED_INT$1457
  0C:090A    A$SHARED_INT$1461
  0C:090A    C$SHARED_INT.C$222$1$1
  0C:090C    A$SHARED_INT$1462
  0C:090F    A$SHARED_INT$1465
  0C:090F    C$SHARED_INT.C$225$2$3
  0C:0912    A$SHARED_INT$1468
  0C:0912    C$SHARED_INT.C$231$2$3
  0C:0915    A$SHARED_INT$1469
  0C:0918    A$SHARED_INT$1472
  0C:0918    C$SHARED_INT.C$232$2$3
  0C:091B    A$SHARED_INT$1474
  0C:091D    A$SHARED_INT$1475
  0C:0920    A$SHARED_INT$1478
  0C:0920    C$SHARED_INT.C$233$2$3
  0C:0922    A$SHARED_INT$1481
  0C:0922    C$SHARED_INT.C$264$2$3
  0C:0925    A$SHARED_INT$1482
  0C:0928    A$SHARED_INT$1485
  0C:0928    C$SHARED_INT.C$265$2$3
  0C:092B    A$SHARED_INT$1486
  0C:092C    A$SHARED_INT$1487
  0C:092D    A$SHARED_INT$1488
  0C:092F    A$SHARED_INT$1491
  0C:092F    C$SHARED_INT.C$266$2$3
  0C:0932    A$SHARED_INT$1493
  0C:0934    A$SHARED_INT$1494
  0C:0937    A$SHARED_INT$1498
  0C:0937    C$SHARED_INT.C$280$1$1
  0C:093A    A$SHARED_INT$1501
  0C:093A    C$SHARED_INT.C$282$1$1
  0C:0946    A$SHARED_INT$1502
  0C:0948    A$SHARED_INT$1503
  0C:094A    A$SHARED_INT$1504
  0C:094C    A$SHARED_INT$1505
  0C:094E    A$SHARED_INT$1506
  0C:0950    A$SHARED_INT$1507
  0C:0952    A$SHARED_INT$1508
  0C:0954    A$SHARED_INT$1509
  0C:0956    A$SHARED_INT$1510
  0C:0958    A$SHARED_INT$1511
  0C:095A    A$SHARED_INT$1512
  0C:095C    A$SHARED_INT$1513
  0C:095E    A$SHARED_INT$1514
  0C:0960    A$SHARED_INT$1515
  0C:0962    A$SHARED_INT$1518
  0C:0962    C$SHARED_INT.C$283$1$1
  0C:0962    XG$SHINT_viXINTR5Isr$0$0
  0C:0963    A$SHARED_INT$1530
  0C:0963    C$SHARED_INT.C$325$1$1
  0C:0963    G$SHINT_viXINTR6Isr$0$0
  0C:0963    _SHINT_viXINTR6Isr
  0C:0965    A$SHARED_INT$1531
  0C:0967    A$SHARED_INT$1532
  0C:0969    A$SHARED_INT$1533
  0C:096B    A$SHARED_INT$1534
  0C:096D    A$SHARED_INT$1535
  0C:096F    A$SHARED_INT$1536
  0C:0971    A$SHARED_INT$1537
  0C:0973    A$SHARED_INT$1538
  0C:0975    A$SHARED_INT$1539
  0C:0977    A$SHARED_INT$1540
  0C:0979    A$SHARED_INT$1541
  0C:097B    A$SHARED_INT$1542
  0C:097D    A$SHARED_INT$1543
  0C:097F    A$SHARED_INT$1544
  0C:0982    A$SHARED_INT$1547
  0C:0982    C$SHARED_INT.C$329$1$1
  0C:0985    A$SHARED_INT$1548
  0C:0987    A$SHARED_INT$1549
  0C:0989    A$SHARED_INT$1552
  0C:0989    C$SHARED_INT.C$330$1$1
  0C:098C    A$SHARED_INT$1553
  0C:098E    A$SHARED_INT$1554
  0C:0990    A$SHARED_INT$1555
  0C:0992    A$SHARED_INT$1556
  0C:0994    A$SHARED_INT$1557
  0C:0997    A$SHARED_INT$1558
  0C:099A    A$SHARED_INT$1561
  0C:099A    C$SHARED_INT.C$331$1$1
  0C:099D    A$SHARED_INT$1562
  0C:09A0    A$SHARED_INT$1563
  0C:09A3    A$SHARED_INT$1564
  0C:09A6    A$SHARED_INT$1565
  0C:09A9    A$SHARED_INT$1568
  0C:09A9    C$SHARED_INT.C$332$1$1
  0C:09AC    A$SHARED_INT$1569
  0C:09AF    A$SHARED_INT$1572
  0C:09AF    C$SHARED_INT.C$333$1$1
  0C:09B1    A$SHARED_INT$1575
  0C:09B1    C$SHARED_INT.C$336$1$1
  0C:09B4    A$SHARED_INT$1578
  0C:09B4    C$SHARED_INT.C$366$1$1
  0C:09B6    A$SHARED_INT$1579
  0C:09B9    A$SHARED_INT$1582
  0C:09B9    C$SHARED_INT.C$369$2$2
  0C:09BC    A$SHARED_INT$1586
  0C:09BC    C$SHARED_INT.C$379$1$1
  0C:09BE    A$SHARED_INT$1587
  0C:09C1    A$SHARED_INT$1590
  0C:09C1    C$SHARED_INT.C$382$2$3
  0C:09C4    A$SHARED_INT$1594
  0C:09C4    C$SHARED_INT.C$395$1$1
  0C:09C7    A$SHARED_INT$1595
  0C:09C9    A$SHARED_INT$1596
  0C:09CB    A$SHARED_INT$1597
  0C:09CD    A$SHARED_INT$1598
  0C:09CF    A$SHARED_INT$1599
  0C:09D1    A$SHARED_INT$1600
  0C:09D3    A$SHARED_INT$1601
  0C:09D5    A$SHARED_INT$1602
  0C:09D7    A$SHARED_INT$1603
  0C:09D9    A$SHARED_INT$1604
  0C:09DB    A$SHARED_INT$1605
  0C:09DD    A$SHARED_INT$1606
  0C:09DF    A$SHARED_INT$1607
  0C:09E1    A$SHARED_INT$1608
  0C:09E3    A$SHARED_INT$1611
  0C:09E3    C$SHARED_INT.C$396$1$1
  0C:09E3    XG$SHINT_viXINTR6Isr$0$0
  0C:09E4    A$T2$1373
  0C:09E4    C$T2.C$131$0$0
  0C:09E4    C$T2.C$152$1$1
  0C:09E4    G$T2_vInit$0$0
  0C:09E4    _T2_vInit
  0C:09E7    A$T2$1374
  0C:09EA    A$T2$1377
  0C:09EA    C$T2.C$155$1$1
  0C:09ED    A$T2$1378
  0C:09F0    A$T2$1381
  0C:09F0    C$T2.C$157$1$1
  0C:09F3    A$T2$1384
  0C:09F3    C$T2.C$164$1$1
  0C:09F5    A$T2$1387
  0C:09F5    C$T2.C$166$1$1
  0C:09F5    XG$T2_vInit$0$0
  0C:09F6    A$UART$1408
  0C:09F6    C$UART.C$127$0$0
  0C:09F6    C$UART.C$142$1$1
  0C:09F6    G$UART_vInit$0$0
  0C:09F6    _UART_vInit
  0C:09F9    A$UART$1411
  0C:09F9    C$UART.C$143$1$1
  0C:09FC    A$UART$1414
  0C:09FC    C$UART.C$144$1$1
  0C:09FF    A$UART$1417
  0C:09FF    C$UART.C$145$1$1
  0C:0A02    A$UART$1420
  0C:0A02    C$UART.C$146$1$1
  0C:0A05    A$UART$1423
  0C:0A05    C$UART.C$148$1$1
  0C:0A08    A$UART$1426
  0C:0A08    C$UART.C$149$1$1
  0C:0A0B    A$UART$1429
  0C:0A0B    C$UART.C$158$1$1
  0C:0A0E    A$UART$1432
  0C:0A0E    C$UART.C$159$1$1
  0C:0A11    A$UART$1435
  0C:0A11    C$UART.C$167$1$1
  0C:0A13    A$UART$1438
  0C:0A13    C$UART.C$169$1$1
  0C:0A13    XG$UART_vInit$0$0
  0C:0A14    A$UART$1450
  0C:0A14    C$UART.C$206$1$1
  0C:0A14    G$UART_viIsr$0$0
  0C:0A14    _UART_viIsr
  0C:0A16    A$UART$1451
  0C:0A18    A$UART$1452
  0C:0A1A    A$UART$1453
  0C:0A1C    A$UART$1454
  0C:0A1E    A$UART$1455
  0C:0A20    A$UART$1456
  0C:0A22    A$UART$1457
  0C:0A24    A$UART$1458
  0C:0A26    A$UART$1459
  0C:0A28    A$UART$1460
  0C:0A2A    A$UART$1461
  0C:0A2C    A$UART$1462
  0C:0A2E    A$UART$1463
  0C:0A30    A$UART$1464
  0C:0A33    A$UART$1467
  0C:0A33    C$UART.C$212$1$1
  0C:0A36    A$UART$1472
  0C:0A36    C$UART.C$213$1$1
  0C:0A36    C$UART.C$216$2$2
  0C:0A39    A$UART$1473
  0C:0A3B    A$UART$1477
  0C:0A3B    C$UART.C$217$2$2
  0C:0A3E    A$UART$1478
  0C:0A41    A$UART$1479
  0C:0A44    A$UART$1482
  0C:0A44    C$UART.C$218$2$2
  0C:0A46    A$UART$1483
  0C:0A48    A$UART$1484
  0C:0A4A    A$UART$1485
  0C:0A4C    A$UART$1486
  0C:0A4E    A$UART$1487
  0C:0A50    A$UART$1488
  0C:0A52    A$UART$1489
  0C:0A54    A$UART$1490
  0C:0A56    A$UART$1491
  0C:0A58    A$UART$1492
  0C:0A5A    A$UART$1493
  0C:0A5C    A$UART$1494
  0C:0A5E    A$UART$1495
  0C:0A60    A$UART$1496
  0C:0A63    A$UART$1497
  0C:0A65    A$UART$1498
  0C:0A67    A$UART$1499
  0C:0A69    A$UART$1502
  0C:0A69    C$UART.C$219$2$2
  0C:0A6B    A$UART$1503
  0C:0A6D    A$UART$1504
  0C:0A6E    A$UART$1505
  0C:0A6F    A$UART$1506
  0C:0A71    A$UART$1509
  0C:0A71    C$UART.C$220$3$3
  0C:0A73    A$UART$1510
  0C:0A75    A$UART$1511
  0C:0A76    A$UART$1512
  0C:0A78    A$UART$1513
  0C:0A79    A$UART$1514
  0C:0A7B    A$UART$1515
  0C:0A7E    A$UART$1516
  0C:0A80    A$UART$1520
  0C:0A80    C$UART.C$222$2$2
  0C:0A83    A$UART$1524
  0C:0A83    C$UART.C$225$1$1
  0C:0A85    A$UART$1527
  0C:0A85    C$UART.C$235$1$1
  0C:0A88    A$UART$1528
  0C:0A8A    A$UART$1529
  0C:0A8C    A$UART$1530
  0C:0A8E    A$UART$1531
  0C:0A90    A$UART$1532
  0C:0A92    A$UART$1533
  0C:0A94    A$UART$1534
  0C:0A96    A$UART$1535
  0C:0A98    A$UART$1536
  0C:0A9A    A$UART$1537
  0C:0A9C    A$UART$1538
  0C:0A9E    A$UART$1539
  0C:0AA0    A$UART$1540
  0C:0AA2    A$UART$1541
  0C:0AA4    A$UART$1544
  0C:0AA4    C$UART.C$236$1$1
  0C:0AA4    XG$UART_viIsr$0$0
  0C:0AA5    A$UART$1557
  0C:0AA5    C$UART.C$258$1$1
  0C:0AA5    G$UART_vSendData8$0$0
  0C:0AA5    _UART_vSendData8
  0C:0AA7    A$UART$1560
  0C:0AA7    C$UART.C$261$1$1
  0C:0AA9    A$UART$1563
  0C:0AA9    C$UART.C$264$1$1
  0C:0AAB    A$UART$1566
  0C:0AAB    C$UART.C$265$1$1
  0C:0AAB    XG$UART_vSendData8$0$0
  0C:0AAC    __gptrput
  0C:0B1E    _vsprintf
  0C:0B5B    _sprintf
  0C:0C80    __print_format
  0C:116E    _strlen
  0C:1186    __gptrget
  0C:11A2    _putchar

Hexadecimal

Area                               Addr   Size   Decimal Bytes (Attributes)
--------------------------------   ----   ----   ------- ----- ------------
CONST                              11DF   0010 =     16. bytes (REL,CON,CODE)

      Value  Global
   --------  --------------------------------
  0C:11DF    FUART$_str_0$0$0


Hexadecimal

Area                               Addr   Size   Decimal Bytes (Attributes)
--------------------------------   ----   ----   ------- ----- ------------
startup_code                       11EF   003E =     62. bytes (REL,CON,CODE)

      Value  Global
   --------  --------------------------------
  0C:11EF    A$startupxc886$49
  0C:11EF    __sdcc_external_startup
  0C:11F2    A$startupxc886$50
  0C:11F5    A$startupxc886$51
  0C:11F8    A$startupxc886$52
  0C:11FB    A$startupxc886$53
  0C:11FE    A$startupxc886$55
  0C:1200    A$startupxc886$58
  0C:1202    A$startupxc886$59
  0C:1204    A$startupxc886$62
  0C:1207    A$startupxc886$64
  0C:1209    A$startupxc886$65
  0C:120C    A$startupxc886$66
  0C:120F    A$startupxc886$69
  0C:1212    A$startupxc886$70
  0C:1215    A$startupxc886$71
  0C:1218    A$startupxc886$72
  0C:121B    A$startupxc886$73
  0C:121E    A$startupxc886$75
  0C:1221    A$startupxc886$77
  0C:1223    A$startupxc886$78
  0C:1226    A$startupxc886$80
  0C:1229    A$startupxc886$81
  0C:122C    A$startupxc886$86
ASxxxx Linker V01.75 + NoICE + SDCC Feb 1999,  page 1.

Files Linked      [ module(s) ]

./MAIN.rel      
./ADC.rel       
./CAN.rel       
./IO.rel        
./MemInitxc88x.rel
./SHARED_INT.rel
./T2.rel        
./UART.rel      
./startupxc886.rel

Libraries Linked            [   object  file   ]

C:/DAVE-Bench-201\SDCC_XC800\lib\small\libsdcc.lib    [         _gptrput ]
C:/DAVE-Bench-201\SDCC_XC800\lib\small\xc800.lib    [         crtxinit ]
C:/DAVE-Bench-201\SDCC_XC800\lib\small\libsdcc.lib    [          sprintf ]
C:/DAVE-Bench-201\SDCC_XC800\lib\small\libsdcc.lib    [              _bp ]
C:/DAVE-Bench-201\SDCC_XC800\lib\small\libsdcc.lib    [     printf_large ]
C:/DAVE-Bench-201\SDCC_XC800\lib\small\libsdcc.lib    [          _strlen ]
C:/DAVE-Bench-201\SDCC_XC800\lib\small\xc800.lib    [         crtstart ]
C:/DAVE-Bench-201\SDCC_XC800\lib\small\libsdcc.lib    [         _gptrget ]
C:/DAVE-Bench-201\SDCC_XC800\lib\small\libsdcc.lib    [          putchar ]

ASxxxx Linker V01.75 + NoICE + SDCC Feb 1999,  page 2.

User Base Address Definitions

HOME = 0x0000
XSEG = 0xf000
PSEG = 0xf000
ISEG = 0x0080
SSEG = 0x0080
BSEG=0x20
PSEG=0xF000

